   1              		.cpu cortex-m4
   2              		.eabi_attribute 20, 1
   3              		.eabi_attribute 21, 1
   4              		.eabi_attribute 23, 3
   5              		.eabi_attribute 24, 1
   6              		.eabi_attribute 25, 1
   7              		.eabi_attribute 26, 1
   8              		.eabi_attribute 30, 4
   9              		.eabi_attribute 34, 1
  10              		.eabi_attribute 18, 4
  11              		.file	"simpleserial.c"
  12              		.text
  13              	.Ltext0:
  14              		.cfi_sections	.debug_frame
  15              		.section	.text.check_version,"ax",%progbits
  16              		.align	1
  17              		.global	check_version
  18              		.arch armv7e-m
  19              		.syntax unified
  20              		.thumb
  21              		.thumb_func
  22              		.fpu softvfp
  24              	check_version:
  25              	.LVL0:
  26              	.LFB1:
  27              		.file 1 "/home/max/chipwhisperer/firmware/mcu/simpleserial/simpleserial.c"
   1:/home/max/chipwhisperer/firmware/mcu/simpleserial/simpleserial.c **** // simpleserial.c
   2:/home/max/chipwhisperer/firmware/mcu/simpleserial/simpleserial.c **** 
   3:/home/max/chipwhisperer/firmware/mcu/simpleserial/simpleserial.c **** #include "simpleserial.h"
   4:/home/max/chipwhisperer/firmware/mcu/simpleserial/simpleserial.c **** #include <stdint.h>
   5:/home/max/chipwhisperer/firmware/mcu/simpleserial/simpleserial.c **** #include "hal.h"
   6:/home/max/chipwhisperer/firmware/mcu/simpleserial/simpleserial.c **** 
   7:/home/max/chipwhisperer/firmware/mcu/simpleserial/simpleserial.c **** 
   8:/home/max/chipwhisperer/firmware/mcu/simpleserial/simpleserial.c **** #define MAX_SS_CMDS 32
   9:/home/max/chipwhisperer/firmware/mcu/simpleserial/simpleserial.c **** static int num_commands = 0;
  10:/home/max/chipwhisperer/firmware/mcu/simpleserial/simpleserial.c **** 
  11:/home/max/chipwhisperer/firmware/mcu/simpleserial/simpleserial.c **** 
  12:/home/max/chipwhisperer/firmware/mcu/simpleserial/simpleserial.c **** //#define SS_VER_1_0 0
  13:/home/max/chipwhisperer/firmware/mcu/simpleserial/simpleserial.c **** //#define SS_VER_1_1 1
  14:/home/max/chipwhisperer/firmware/mcu/simpleserial/simpleserial.c **** //#define SS_VER_2_0 2
  15:/home/max/chipwhisperer/firmware/mcu/simpleserial/simpleserial.c **** 
  16:/home/max/chipwhisperer/firmware/mcu/simpleserial/simpleserial.c **** 
  17:/home/max/chipwhisperer/firmware/mcu/simpleserial/simpleserial.c **** // 0xA6 formerly 
  18:/home/max/chipwhisperer/firmware/mcu/simpleserial/simpleserial.c **** #define CW_CRC 0x4D 
  19:/home/max/chipwhisperer/firmware/mcu/simpleserial/simpleserial.c **** uint8_t ss_crc(uint8_t *buf, uint8_t len)
  20:/home/max/chipwhisperer/firmware/mcu/simpleserial/simpleserial.c **** {
  21:/home/max/chipwhisperer/firmware/mcu/simpleserial/simpleserial.c **** 	unsigned int k = 0;
  22:/home/max/chipwhisperer/firmware/mcu/simpleserial/simpleserial.c **** 	uint8_t crc = 0x00;
  23:/home/max/chipwhisperer/firmware/mcu/simpleserial/simpleserial.c **** 	while (len--) {
  24:/home/max/chipwhisperer/firmware/mcu/simpleserial/simpleserial.c **** 		crc ^= *buf++;
  25:/home/max/chipwhisperer/firmware/mcu/simpleserial/simpleserial.c **** 		for (k = 0; k < 8; k++) {
  26:/home/max/chipwhisperer/firmware/mcu/simpleserial/simpleserial.c **** 			crc = crc & 0x80 ? (crc << 1) ^ CW_CRC: crc << 1;
  27:/home/max/chipwhisperer/firmware/mcu/simpleserial/simpleserial.c **** 		}
  28:/home/max/chipwhisperer/firmware/mcu/simpleserial/simpleserial.c **** 	}
  29:/home/max/chipwhisperer/firmware/mcu/simpleserial/simpleserial.c **** 	return crc;
  30:/home/max/chipwhisperer/firmware/mcu/simpleserial/simpleserial.c **** 
  31:/home/max/chipwhisperer/firmware/mcu/simpleserial/simpleserial.c **** }
  32:/home/max/chipwhisperer/firmware/mcu/simpleserial/simpleserial.c **** 
  33:/home/max/chipwhisperer/firmware/mcu/simpleserial/simpleserial.c **** // [B_STUFF, CMD, SCMD, LEN, B_STUFF, DATA..., CRC, TERM]
  34:/home/max/chipwhisperer/firmware/mcu/simpleserial/simpleserial.c **** 
  35:/home/max/chipwhisperer/firmware/mcu/simpleserial/simpleserial.c **** //#define SS_VER SS_VER_2_0
  36:/home/max/chipwhisperer/firmware/mcu/simpleserial/simpleserial.c **** #if SS_VER == SS_VER_2_0
  37:/home/max/chipwhisperer/firmware/mcu/simpleserial/simpleserial.c **** #error "SS_VER_2_0 is deprecated! Use SS_VER_2_1 instead."
  38:/home/max/chipwhisperer/firmware/mcu/simpleserial/simpleserial.c **** #elif SS_VER == SS_VER_2_1
  39:/home/max/chipwhisperer/firmware/mcu/simpleserial/simpleserial.c **** 
  40:/home/max/chipwhisperer/firmware/mcu/simpleserial/simpleserial.c **** #define MAX_SS_LEN 249
  41:/home/max/chipwhisperer/firmware/mcu/simpleserial/simpleserial.c **** 
  42:/home/max/chipwhisperer/firmware/mcu/simpleserial/simpleserial.c **** int hex_decode(int len, char* ascii_buf, uint8_t* data_buf)
  43:/home/max/chipwhisperer/firmware/mcu/simpleserial/simpleserial.c **** {
  44:/home/max/chipwhisperer/firmware/mcu/simpleserial/simpleserial.c **** 	for(int i = 0; i < len; i++)
  45:/home/max/chipwhisperer/firmware/mcu/simpleserial/simpleserial.c **** 	{
  46:/home/max/chipwhisperer/firmware/mcu/simpleserial/simpleserial.c **** 		char n_hi = ascii_buf[2*i];
  47:/home/max/chipwhisperer/firmware/mcu/simpleserial/simpleserial.c **** 		char n_lo = ascii_buf[2*i+1];
  48:/home/max/chipwhisperer/firmware/mcu/simpleserial/simpleserial.c **** 
  49:/home/max/chipwhisperer/firmware/mcu/simpleserial/simpleserial.c **** 		if(n_lo >= '0' && n_lo <= '9')
  50:/home/max/chipwhisperer/firmware/mcu/simpleserial/simpleserial.c **** 			data_buf[i] = n_lo - '0';
  51:/home/max/chipwhisperer/firmware/mcu/simpleserial/simpleserial.c **** 		else if(n_lo >= 'A' && n_lo <= 'F')
  52:/home/max/chipwhisperer/firmware/mcu/simpleserial/simpleserial.c **** 			data_buf[i] = n_lo - 'A' + 10;
  53:/home/max/chipwhisperer/firmware/mcu/simpleserial/simpleserial.c **** 		else if(n_lo >= 'a' && n_lo <= 'f')
  54:/home/max/chipwhisperer/firmware/mcu/simpleserial/simpleserial.c **** 			data_buf[i] = n_lo - 'a' + 10;
  55:/home/max/chipwhisperer/firmware/mcu/simpleserial/simpleserial.c **** 		else
  56:/home/max/chipwhisperer/firmware/mcu/simpleserial/simpleserial.c **** 			return 1;
  57:/home/max/chipwhisperer/firmware/mcu/simpleserial/simpleserial.c **** 
  58:/home/max/chipwhisperer/firmware/mcu/simpleserial/simpleserial.c **** 		if(n_hi >= '0' && n_hi <= '9')
  59:/home/max/chipwhisperer/firmware/mcu/simpleserial/simpleserial.c **** 			data_buf[i] |= (n_hi - '0') << 4;
  60:/home/max/chipwhisperer/firmware/mcu/simpleserial/simpleserial.c **** 		else if(n_hi >= 'A' && n_hi <= 'F')
  61:/home/max/chipwhisperer/firmware/mcu/simpleserial/simpleserial.c **** 			data_buf[i] |= (n_hi - 'A' + 10) << 4;
  62:/home/max/chipwhisperer/firmware/mcu/simpleserial/simpleserial.c **** 		else if(n_hi >= 'a' && n_hi <= 'f')
  63:/home/max/chipwhisperer/firmware/mcu/simpleserial/simpleserial.c **** 			data_buf[i] |= (n_hi - 'a' + 10) << 4;
  64:/home/max/chipwhisperer/firmware/mcu/simpleserial/simpleserial.c **** 		else
  65:/home/max/chipwhisperer/firmware/mcu/simpleserial/simpleserial.c **** 			return 1;
  66:/home/max/chipwhisperer/firmware/mcu/simpleserial/simpleserial.c **** 	}
  67:/home/max/chipwhisperer/firmware/mcu/simpleserial/simpleserial.c **** 
  68:/home/max/chipwhisperer/firmware/mcu/simpleserial/simpleserial.c **** 	return 0;
  69:/home/max/chipwhisperer/firmware/mcu/simpleserial/simpleserial.c **** }
  70:/home/max/chipwhisperer/firmware/mcu/simpleserial/simpleserial.c **** 
  71:/home/max/chipwhisperer/firmware/mcu/simpleserial/simpleserial.c **** typedef struct ss_cmd
  72:/home/max/chipwhisperer/firmware/mcu/simpleserial/simpleserial.c **** {
  73:/home/max/chipwhisperer/firmware/mcu/simpleserial/simpleserial.c **** 	char c;
  74:/home/max/chipwhisperer/firmware/mcu/simpleserial/simpleserial.c **** 	unsigned int len;
  75:/home/max/chipwhisperer/firmware/mcu/simpleserial/simpleserial.c **** 	uint8_t (*fp)(uint8_t, uint8_t, uint8_t, uint8_t *);
  76:/home/max/chipwhisperer/firmware/mcu/simpleserial/simpleserial.c **** } ss_cmd;
  77:/home/max/chipwhisperer/firmware/mcu/simpleserial/simpleserial.c **** static ss_cmd commands[MAX_SS_CMDS];
  78:/home/max/chipwhisperer/firmware/mcu/simpleserial/simpleserial.c **** 
  79:/home/max/chipwhisperer/firmware/mcu/simpleserial/simpleserial.c **** void ss_puts(char *x)
  80:/home/max/chipwhisperer/firmware/mcu/simpleserial/simpleserial.c **** {
  81:/home/max/chipwhisperer/firmware/mcu/simpleserial/simpleserial.c **** 	do {
  82:/home/max/chipwhisperer/firmware/mcu/simpleserial/simpleserial.c **** 		putch(*x);
  83:/home/max/chipwhisperer/firmware/mcu/simpleserial/simpleserial.c **** 	} while (*++x);
  84:/home/max/chipwhisperer/firmware/mcu/simpleserial/simpleserial.c **** }
  85:/home/max/chipwhisperer/firmware/mcu/simpleserial/simpleserial.c **** 
  86:/home/max/chipwhisperer/firmware/mcu/simpleserial/simpleserial.c **** #define FRAME_BYTE 0x00
  87:/home/max/chipwhisperer/firmware/mcu/simpleserial/simpleserial.c **** 
  88:/home/max/chipwhisperer/firmware/mcu/simpleserial/simpleserial.c **** uint8_t check_version(uint8_t cmd, uint8_t scmd, uint8_t len, uint8_t *data)
  89:/home/max/chipwhisperer/firmware/mcu/simpleserial/simpleserial.c **** {
  90:/home/max/chipwhisperer/firmware/mcu/simpleserial/simpleserial.c **** 	uint8_t ver = SS_VER;
  91:/home/max/chipwhisperer/firmware/mcu/simpleserial/simpleserial.c **** 	simpleserial_put('r', 1, &ver);
  92:/home/max/chipwhisperer/firmware/mcu/simpleserial/simpleserial.c **** 	return SS_ERR_OK;
  93:/home/max/chipwhisperer/firmware/mcu/simpleserial/simpleserial.c **** }
  94:/home/max/chipwhisperer/firmware/mcu/simpleserial/simpleserial.c **** 
  95:/home/max/chipwhisperer/firmware/mcu/simpleserial/simpleserial.c **** uint8_t ss_get_commands(uint8_t cmd, uint8_t scmd, uint8_t len, uint8_t *data)
  96:/home/max/chipwhisperer/firmware/mcu/simpleserial/simpleserial.c **** {
  97:/home/max/chipwhisperer/firmware/mcu/simpleserial/simpleserial.c ****     uint8_t cmd_chars[MAX_SS_CMDS];
  98:/home/max/chipwhisperer/firmware/mcu/simpleserial/simpleserial.c ****     for (uint8_t i = 0; i < (num_commands & 0xFF); i++) {
  99:/home/max/chipwhisperer/firmware/mcu/simpleserial/simpleserial.c ****         cmd_chars[i] = commands[i].c;
 100:/home/max/chipwhisperer/firmware/mcu/simpleserial/simpleserial.c ****     }
 101:/home/max/chipwhisperer/firmware/mcu/simpleserial/simpleserial.c **** 
 102:/home/max/chipwhisperer/firmware/mcu/simpleserial/simpleserial.c ****     simpleserial_put('r', num_commands & 0xFF, (void *)cmd_chars);
 103:/home/max/chipwhisperer/firmware/mcu/simpleserial/simpleserial.c ****     return 0x00;
 104:/home/max/chipwhisperer/firmware/mcu/simpleserial/simpleserial.c **** 
 105:/home/max/chipwhisperer/firmware/mcu/simpleserial/simpleserial.c **** }
 106:/home/max/chipwhisperer/firmware/mcu/simpleserial/simpleserial.c **** 
 107:/home/max/chipwhisperer/firmware/mcu/simpleserial/simpleserial.c **** uint8_t stuff_data(uint8_t *buf, uint8_t len)
 108:/home/max/chipwhisperer/firmware/mcu/simpleserial/simpleserial.c **** {
 109:/home/max/chipwhisperer/firmware/mcu/simpleserial/simpleserial.c **** 	uint8_t i = 1;
 110:/home/max/chipwhisperer/firmware/mcu/simpleserial/simpleserial.c **** 	uint8_t last = 0;
 111:/home/max/chipwhisperer/firmware/mcu/simpleserial/simpleserial.c **** 	for (; i < len; i++) {
 112:/home/max/chipwhisperer/firmware/mcu/simpleserial/simpleserial.c **** 		if (buf[i] == FRAME_BYTE) {
 113:/home/max/chipwhisperer/firmware/mcu/simpleserial/simpleserial.c **** 			buf[last] = i - last;
 114:/home/max/chipwhisperer/firmware/mcu/simpleserial/simpleserial.c **** 			last = i;
 115:/home/max/chipwhisperer/firmware/mcu/simpleserial/simpleserial.c **** 		}
 116:/home/max/chipwhisperer/firmware/mcu/simpleserial/simpleserial.c **** 	}
 117:/home/max/chipwhisperer/firmware/mcu/simpleserial/simpleserial.c **** 	return 0x00;
 118:/home/max/chipwhisperer/firmware/mcu/simpleserial/simpleserial.c **** }
 119:/home/max/chipwhisperer/firmware/mcu/simpleserial/simpleserial.c **** 
 120:/home/max/chipwhisperer/firmware/mcu/simpleserial/simpleserial.c **** uint8_t unstuff_data(uint8_t *buf, uint8_t len)
 121:/home/max/chipwhisperer/firmware/mcu/simpleserial/simpleserial.c **** {
 122:/home/max/chipwhisperer/firmware/mcu/simpleserial/simpleserial.c **** 	uint8_t next = buf[0];
 123:/home/max/chipwhisperer/firmware/mcu/simpleserial/simpleserial.c **** 	buf[0] = 0x00;
 124:/home/max/chipwhisperer/firmware/mcu/simpleserial/simpleserial.c **** 	//len -= 1;
 125:/home/max/chipwhisperer/firmware/mcu/simpleserial/simpleserial.c **** 	uint8_t tmp = next;
 126:/home/max/chipwhisperer/firmware/mcu/simpleserial/simpleserial.c **** 	while ((next < len) && tmp != 0) {
 127:/home/max/chipwhisperer/firmware/mcu/simpleserial/simpleserial.c **** 		tmp = buf[next];
 128:/home/max/chipwhisperer/firmware/mcu/simpleserial/simpleserial.c **** 		buf[next] = FRAME_BYTE;
 129:/home/max/chipwhisperer/firmware/mcu/simpleserial/simpleserial.c **** 		next += tmp;
 130:/home/max/chipwhisperer/firmware/mcu/simpleserial/simpleserial.c **** 	}
 131:/home/max/chipwhisperer/firmware/mcu/simpleserial/simpleserial.c **** 	return next;
 132:/home/max/chipwhisperer/firmware/mcu/simpleserial/simpleserial.c **** }
 133:/home/max/chipwhisperer/firmware/mcu/simpleserial/simpleserial.c **** 
 134:/home/max/chipwhisperer/firmware/mcu/simpleserial/simpleserial.c **** // Set up the SimpleSerial module by preparing internal commands
 135:/home/max/chipwhisperer/firmware/mcu/simpleserial/simpleserial.c **** // This just adds the "v" command for now...
 136:/home/max/chipwhisperer/firmware/mcu/simpleserial/simpleserial.c **** void simpleserial_init()
 137:/home/max/chipwhisperer/firmware/mcu/simpleserial/simpleserial.c **** {
 138:/home/max/chipwhisperer/firmware/mcu/simpleserial/simpleserial.c **** 	simpleserial_addcmd('v', 0, check_version);
 139:/home/max/chipwhisperer/firmware/mcu/simpleserial/simpleserial.c ****     simpleserial_addcmd('w', 0, ss_get_commands);
 140:/home/max/chipwhisperer/firmware/mcu/simpleserial/simpleserial.c **** }
 141:/home/max/chipwhisperer/firmware/mcu/simpleserial/simpleserial.c **** 
 142:/home/max/chipwhisperer/firmware/mcu/simpleserial/simpleserial.c **** int simpleserial_addcmd(char c, unsigned int len, uint8_t (*fp)(uint8_t, uint8_t, uint8_t, uint8_t*
 143:/home/max/chipwhisperer/firmware/mcu/simpleserial/simpleserial.c **** {
 144:/home/max/chipwhisperer/firmware/mcu/simpleserial/simpleserial.c **** 	if(num_commands >= MAX_SS_CMDS) {
 145:/home/max/chipwhisperer/firmware/mcu/simpleserial/simpleserial.c **** 		putch('a');
 146:/home/max/chipwhisperer/firmware/mcu/simpleserial/simpleserial.c **** 		return 1;
 147:/home/max/chipwhisperer/firmware/mcu/simpleserial/simpleserial.c **** 	}
 148:/home/max/chipwhisperer/firmware/mcu/simpleserial/simpleserial.c **** 
 149:/home/max/chipwhisperer/firmware/mcu/simpleserial/simpleserial.c **** 	if(len >= MAX_SS_LEN) {
 150:/home/max/chipwhisperer/firmware/mcu/simpleserial/simpleserial.c **** 		putch('b');
 151:/home/max/chipwhisperer/firmware/mcu/simpleserial/simpleserial.c **** 		return 1;
 152:/home/max/chipwhisperer/firmware/mcu/simpleserial/simpleserial.c **** 	}
 153:/home/max/chipwhisperer/firmware/mcu/simpleserial/simpleserial.c **** 
 154:/home/max/chipwhisperer/firmware/mcu/simpleserial/simpleserial.c **** 	commands[num_commands].c   = c;
 155:/home/max/chipwhisperer/firmware/mcu/simpleserial/simpleserial.c **** 	commands[num_commands].len = len;
 156:/home/max/chipwhisperer/firmware/mcu/simpleserial/simpleserial.c **** 	commands[num_commands].fp  = fp;
 157:/home/max/chipwhisperer/firmware/mcu/simpleserial/simpleserial.c **** 	num_commands++;
 158:/home/max/chipwhisperer/firmware/mcu/simpleserial/simpleserial.c **** 
 159:/home/max/chipwhisperer/firmware/mcu/simpleserial/simpleserial.c **** 	return 0;
 160:/home/max/chipwhisperer/firmware/mcu/simpleserial/simpleserial.c **** }
 161:/home/max/chipwhisperer/firmware/mcu/simpleserial/simpleserial.c **** 
 162:/home/max/chipwhisperer/firmware/mcu/simpleserial/simpleserial.c **** void simpleserial_get(void)
 163:/home/max/chipwhisperer/firmware/mcu/simpleserial/simpleserial.c **** {
 164:/home/max/chipwhisperer/firmware/mcu/simpleserial/simpleserial.c **** 	uint8_t data_buf[MAX_SS_LEN];
 165:/home/max/chipwhisperer/firmware/mcu/simpleserial/simpleserial.c **** 	uint8_t err = 0;
 166:/home/max/chipwhisperer/firmware/mcu/simpleserial/simpleserial.c **** 
 167:/home/max/chipwhisperer/firmware/mcu/simpleserial/simpleserial.c **** 	for (int i = 0; i < 4; i++) {
 168:/home/max/chipwhisperer/firmware/mcu/simpleserial/simpleserial.c **** 		data_buf[i] = getch(); //PTR, cmd, scmd, len
 169:/home/max/chipwhisperer/firmware/mcu/simpleserial/simpleserial.c **** 		if (data_buf[i] == FRAME_BYTE) {
 170:/home/max/chipwhisperer/firmware/mcu/simpleserial/simpleserial.c **** 			err = SS_ERR_FRAME_BYTE;
 171:/home/max/chipwhisperer/firmware/mcu/simpleserial/simpleserial.c **** 			goto ERROR;
 172:/home/max/chipwhisperer/firmware/mcu/simpleserial/simpleserial.c **** 		}
 173:/home/max/chipwhisperer/firmware/mcu/simpleserial/simpleserial.c **** 	}
 174:/home/max/chipwhisperer/firmware/mcu/simpleserial/simpleserial.c **** 	uint8_t next_frame = unstuff_data(data_buf, 4);
 175:/home/max/chipwhisperer/firmware/mcu/simpleserial/simpleserial.c **** 
 176:/home/max/chipwhisperer/firmware/mcu/simpleserial/simpleserial.c **** 	// check for valid command
 177:/home/max/chipwhisperer/firmware/mcu/simpleserial/simpleserial.c **** 	uint8_t c = 0;
 178:/home/max/chipwhisperer/firmware/mcu/simpleserial/simpleserial.c **** 	for(c = 0; c < num_commands; c++)
 179:/home/max/chipwhisperer/firmware/mcu/simpleserial/simpleserial.c **** 	{
 180:/home/max/chipwhisperer/firmware/mcu/simpleserial/simpleserial.c **** 		if(commands[c].c == data_buf[1])
 181:/home/max/chipwhisperer/firmware/mcu/simpleserial/simpleserial.c **** 			break;
 182:/home/max/chipwhisperer/firmware/mcu/simpleserial/simpleserial.c **** 	}
 183:/home/max/chipwhisperer/firmware/mcu/simpleserial/simpleserial.c **** 
 184:/home/max/chipwhisperer/firmware/mcu/simpleserial/simpleserial.c **** 	if (c == num_commands) {
 185:/home/max/chipwhisperer/firmware/mcu/simpleserial/simpleserial.c **** 		err = SS_ERR_CMD;
 186:/home/max/chipwhisperer/firmware/mcu/simpleserial/simpleserial.c **** 		goto ERROR;
 187:/home/max/chipwhisperer/firmware/mcu/simpleserial/simpleserial.c **** 	}
 188:/home/max/chipwhisperer/firmware/mcu/simpleserial/simpleserial.c **** 
 189:/home/max/chipwhisperer/firmware/mcu/simpleserial/simpleserial.c **** 	//check that next frame not beyond end of message
 190:/home/max/chipwhisperer/firmware/mcu/simpleserial/simpleserial.c **** 	// account for cmd, scmd, len, data, crc, end of frame
 191:/home/max/chipwhisperer/firmware/mcu/simpleserial/simpleserial.c **** 	if ((data_buf[3] + 5) < next_frame) {
 192:/home/max/chipwhisperer/firmware/mcu/simpleserial/simpleserial.c **** 		err = SS_ERR_LEN;
 193:/home/max/chipwhisperer/firmware/mcu/simpleserial/simpleserial.c **** 		goto ERROR;
 194:/home/max/chipwhisperer/firmware/mcu/simpleserial/simpleserial.c **** 	}
 195:/home/max/chipwhisperer/firmware/mcu/simpleserial/simpleserial.c **** 
 196:/home/max/chipwhisperer/firmware/mcu/simpleserial/simpleserial.c **** 	// read in data
 197:/home/max/chipwhisperer/firmware/mcu/simpleserial/simpleserial.c **** 	// eq to len + crc + frame end
 198:/home/max/chipwhisperer/firmware/mcu/simpleserial/simpleserial.c **** 	int i = 4;
 199:/home/max/chipwhisperer/firmware/mcu/simpleserial/simpleserial.c **** 	for (; i < data_buf[3] + 5; i++) {
 200:/home/max/chipwhisperer/firmware/mcu/simpleserial/simpleserial.c **** 		data_buf[i] = getch();
 201:/home/max/chipwhisperer/firmware/mcu/simpleserial/simpleserial.c **** 		if (data_buf[i] == FRAME_BYTE) {
 202:/home/max/chipwhisperer/firmware/mcu/simpleserial/simpleserial.c **** 			err = SS_ERR_FRAME_BYTE;
 203:/home/max/chipwhisperer/firmware/mcu/simpleserial/simpleserial.c **** 			goto ERROR;
 204:/home/max/chipwhisperer/firmware/mcu/simpleserial/simpleserial.c **** 		}
 205:/home/max/chipwhisperer/firmware/mcu/simpleserial/simpleserial.c **** 	}
 206:/home/max/chipwhisperer/firmware/mcu/simpleserial/simpleserial.c **** 
 207:/home/max/chipwhisperer/firmware/mcu/simpleserial/simpleserial.c **** 	//check that final byte is the FRAME_BYTE
 208:/home/max/chipwhisperer/firmware/mcu/simpleserial/simpleserial.c **** 	data_buf[i] = getch();
 209:/home/max/chipwhisperer/firmware/mcu/simpleserial/simpleserial.c **** 	if (data_buf[i] != FRAME_BYTE) {
 210:/home/max/chipwhisperer/firmware/mcu/simpleserial/simpleserial.c **** 		err = SS_ERR_LEN;
 211:/home/max/chipwhisperer/firmware/mcu/simpleserial/simpleserial.c **** 		goto ERROR;
 212:/home/max/chipwhisperer/firmware/mcu/simpleserial/simpleserial.c **** 	}
 213:/home/max/chipwhisperer/firmware/mcu/simpleserial/simpleserial.c **** 
 214:/home/max/chipwhisperer/firmware/mcu/simpleserial/simpleserial.c **** 	//fully unstuff data now
 215:/home/max/chipwhisperer/firmware/mcu/simpleserial/simpleserial.c **** 	unstuff_data(data_buf + next_frame, i - next_frame + 1);
 216:/home/max/chipwhisperer/firmware/mcu/simpleserial/simpleserial.c **** 
 217:/home/max/chipwhisperer/firmware/mcu/simpleserial/simpleserial.c **** 	//calc crc excluding original frame offset and frame end and crc
 218:/home/max/chipwhisperer/firmware/mcu/simpleserial/simpleserial.c **** 	uint8_t crc = ss_crc(data_buf+1, i-2);
 219:/home/max/chipwhisperer/firmware/mcu/simpleserial/simpleserial.c **** 	if (crc != data_buf[i-1]) {
 220:/home/max/chipwhisperer/firmware/mcu/simpleserial/simpleserial.c **** 		err = SS_ERR_CRC;
 221:/home/max/chipwhisperer/firmware/mcu/simpleserial/simpleserial.c **** 		goto ERROR;
 222:/home/max/chipwhisperer/firmware/mcu/simpleserial/simpleserial.c **** 	}
 223:/home/max/chipwhisperer/firmware/mcu/simpleserial/simpleserial.c **** 
 224:/home/max/chipwhisperer/firmware/mcu/simpleserial/simpleserial.c **** 	err = commands[c].fp(data_buf[1], data_buf[2], data_buf[3], data_buf+4);
 225:/home/max/chipwhisperer/firmware/mcu/simpleserial/simpleserial.c **** 
 226:/home/max/chipwhisperer/firmware/mcu/simpleserial/simpleserial.c **** ERROR:
 227:/home/max/chipwhisperer/firmware/mcu/simpleserial/simpleserial.c **** 	simpleserial_put('e', 0x01, &err);
 228:/home/max/chipwhisperer/firmware/mcu/simpleserial/simpleserial.c **** 	return;
 229:/home/max/chipwhisperer/firmware/mcu/simpleserial/simpleserial.c **** }
 230:/home/max/chipwhisperer/firmware/mcu/simpleserial/simpleserial.c **** 
 231:/home/max/chipwhisperer/firmware/mcu/simpleserial/simpleserial.c **** void simpleserial_put(char c, uint8_t size, uint8_t* output)
 232:/home/max/chipwhisperer/firmware/mcu/simpleserial/simpleserial.c **** {
 233:/home/max/chipwhisperer/firmware/mcu/simpleserial/simpleserial.c ****     if (!output) return;
 234:/home/max/chipwhisperer/firmware/mcu/simpleserial/simpleserial.c **** 	uint8_t data_buf[MAX_SS_LEN];
 235:/home/max/chipwhisperer/firmware/mcu/simpleserial/simpleserial.c **** 	data_buf[0] = 0x00;
 236:/home/max/chipwhisperer/firmware/mcu/simpleserial/simpleserial.c **** 	data_buf[1] = c;
 237:/home/max/chipwhisperer/firmware/mcu/simpleserial/simpleserial.c **** 	data_buf[2] = size;
 238:/home/max/chipwhisperer/firmware/mcu/simpleserial/simpleserial.c **** 	int i = 0;
 239:/home/max/chipwhisperer/firmware/mcu/simpleserial/simpleserial.c **** 	for (; i < size; i++) {
 240:/home/max/chipwhisperer/firmware/mcu/simpleserial/simpleserial.c **** 		data_buf[i + 3] = output[i];
 241:/home/max/chipwhisperer/firmware/mcu/simpleserial/simpleserial.c **** 	}
 242:/home/max/chipwhisperer/firmware/mcu/simpleserial/simpleserial.c **** 	data_buf[i + 3] = ss_crc(data_buf+1, size+2);
 243:/home/max/chipwhisperer/firmware/mcu/simpleserial/simpleserial.c **** 	data_buf[i + 4] = 0x00;
 244:/home/max/chipwhisperer/firmware/mcu/simpleserial/simpleserial.c **** 	stuff_data(data_buf, i + 5);
 245:/home/max/chipwhisperer/firmware/mcu/simpleserial/simpleserial.c **** 	for (int i = 0; i < size + 5; i++) {
 246:/home/max/chipwhisperer/firmware/mcu/simpleserial/simpleserial.c **** 		putch(data_buf[i]);
 247:/home/max/chipwhisperer/firmware/mcu/simpleserial/simpleserial.c **** 	}
 248:/home/max/chipwhisperer/firmware/mcu/simpleserial/simpleserial.c **** }
 249:/home/max/chipwhisperer/firmware/mcu/simpleserial/simpleserial.c **** 
 250:/home/max/chipwhisperer/firmware/mcu/simpleserial/simpleserial.c **** 
 251:/home/max/chipwhisperer/firmware/mcu/simpleserial/simpleserial.c **** #else
 252:/home/max/chipwhisperer/firmware/mcu/simpleserial/simpleserial.c **** 
 253:/home/max/chipwhisperer/firmware/mcu/simpleserial/simpleserial.c **** #define MAX_SS_LEN 64
 254:/home/max/chipwhisperer/firmware/mcu/simpleserial/simpleserial.c **** 
 255:/home/max/chipwhisperer/firmware/mcu/simpleserial/simpleserial.c **** typedef struct ss_cmd
 256:/home/max/chipwhisperer/firmware/mcu/simpleserial/simpleserial.c **** {
 257:/home/max/chipwhisperer/firmware/mcu/simpleserial/simpleserial.c **** 	char c;
 258:/home/max/chipwhisperer/firmware/mcu/simpleserial/simpleserial.c **** 	unsigned int len;
 259:/home/max/chipwhisperer/firmware/mcu/simpleserial/simpleserial.c **** 	uint8_t (*fp)(uint8_t*, uint8_t);
 260:/home/max/chipwhisperer/firmware/mcu/simpleserial/simpleserial.c **** 	uint8_t flags;
 261:/home/max/chipwhisperer/firmware/mcu/simpleserial/simpleserial.c **** } ss_cmd;
 262:/home/max/chipwhisperer/firmware/mcu/simpleserial/simpleserial.c **** static ss_cmd commands[MAX_SS_CMDS];
 263:/home/max/chipwhisperer/firmware/mcu/simpleserial/simpleserial.c **** // Callback function for "v" command.
 264:/home/max/chipwhisperer/firmware/mcu/simpleserial/simpleserial.c **** // This can exist in v1.0 as long as we don't actually send back an ack ("z")
 265:/home/max/chipwhisperer/firmware/mcu/simpleserial/simpleserial.c **** uint8_t check_version(uint8_t *v, uint8_t len)
 266:/home/max/chipwhisperer/firmware/mcu/simpleserial/simpleserial.c **** {
  28              		.loc 1 266 1 view -0
  29              		.cfi_startproc
  30              		@ args = 0, pretend = 0, frame = 0
  31              		@ frame_needed = 0, uses_anonymous_args = 0
  32              		@ link register save eliminated.
 267:/home/max/chipwhisperer/firmware/mcu/simpleserial/simpleserial.c **** 	return SS_VER;
  33              		.loc 1 267 2 view .LVU1
 268:/home/max/chipwhisperer/firmware/mcu/simpleserial/simpleserial.c **** }
  34              		.loc 1 268 1 is_stmt 0 view .LVU2
  35 0000 0120     		movs	r0, #1
  36              	.LVL1:
  37              		.loc 1 268 1 view .LVU3
  38 0002 7047     		bx	lr
  39              		.cfi_endproc
  40              	.LFE1:
  42              		.section	.text.simpleserial_put.part.0,"ax",%progbits
  43              		.align	1
  44              		.syntax unified
  45              		.thumb
  46              		.thumb_func
  47              		.fpu softvfp
  49              	simpleserial_put.part.0:
  50              	.LVL2:
  51              	.LFB10:
 269:/home/max/chipwhisperer/firmware/mcu/simpleserial/simpleserial.c **** 
 270:/home/max/chipwhisperer/firmware/mcu/simpleserial/simpleserial.c **** uint8_t ss_num_commands(uint8_t *x, uint8_t len)
 271:/home/max/chipwhisperer/firmware/mcu/simpleserial/simpleserial.c **** {
 272:/home/max/chipwhisperer/firmware/mcu/simpleserial/simpleserial.c ****     uint8_t ncmds = num_commands & 0xFF;
 273:/home/max/chipwhisperer/firmware/mcu/simpleserial/simpleserial.c ****     simpleserial_put('r', 0x01, &ncmds);
 274:/home/max/chipwhisperer/firmware/mcu/simpleserial/simpleserial.c ****     return 0x00;
 275:/home/max/chipwhisperer/firmware/mcu/simpleserial/simpleserial.c **** }
 276:/home/max/chipwhisperer/firmware/mcu/simpleserial/simpleserial.c **** 
 277:/home/max/chipwhisperer/firmware/mcu/simpleserial/simpleserial.c **** typedef struct ss_cmd_repr {
 278:/home/max/chipwhisperer/firmware/mcu/simpleserial/simpleserial.c ****     uint8_t c;
 279:/home/max/chipwhisperer/firmware/mcu/simpleserial/simpleserial.c ****     uint8_t len;
 280:/home/max/chipwhisperer/firmware/mcu/simpleserial/simpleserial.c ****     uint8_t flags;
 281:/home/max/chipwhisperer/firmware/mcu/simpleserial/simpleserial.c **** } ss_cmd_repr;
 282:/home/max/chipwhisperer/firmware/mcu/simpleserial/simpleserial.c **** 
 283:/home/max/chipwhisperer/firmware/mcu/simpleserial/simpleserial.c **** uint8_t ss_get_commands(uint8_t *x, uint8_t len)
 284:/home/max/chipwhisperer/firmware/mcu/simpleserial/simpleserial.c **** {
 285:/home/max/chipwhisperer/firmware/mcu/simpleserial/simpleserial.c ****     ss_cmd_repr repr_cmd_buf[MAX_SS_CMDS];
 286:/home/max/chipwhisperer/firmware/mcu/simpleserial/simpleserial.c ****     for (uint8_t i = 0; i < (num_commands & 0xFF); i++) {
 287:/home/max/chipwhisperer/firmware/mcu/simpleserial/simpleserial.c ****         repr_cmd_buf[i].c = commands[i].c;
 288:/home/max/chipwhisperer/firmware/mcu/simpleserial/simpleserial.c ****         repr_cmd_buf[i].len = commands[i].len;
 289:/home/max/chipwhisperer/firmware/mcu/simpleserial/simpleserial.c ****         repr_cmd_buf[i].flags = commands[i].flags;
 290:/home/max/chipwhisperer/firmware/mcu/simpleserial/simpleserial.c ****     }
 291:/home/max/chipwhisperer/firmware/mcu/simpleserial/simpleserial.c **** 
 292:/home/max/chipwhisperer/firmware/mcu/simpleserial/simpleserial.c ****     simpleserial_put('r', num_commands * sizeof (ss_cmd_repr), (void *) repr_cmd_buf);
 293:/home/max/chipwhisperer/firmware/mcu/simpleserial/simpleserial.c ****     return 0x00;
 294:/home/max/chipwhisperer/firmware/mcu/simpleserial/simpleserial.c **** }
 295:/home/max/chipwhisperer/firmware/mcu/simpleserial/simpleserial.c **** 
 296:/home/max/chipwhisperer/firmware/mcu/simpleserial/simpleserial.c **** static char hex_lookup[16] =
 297:/home/max/chipwhisperer/firmware/mcu/simpleserial/simpleserial.c **** {
 298:/home/max/chipwhisperer/firmware/mcu/simpleserial/simpleserial.c **** 	'0', '1', '2', '3', '4', '5', '6', '7',
 299:/home/max/chipwhisperer/firmware/mcu/simpleserial/simpleserial.c **** 	'8', '9', 'A', 'B', 'C', 'D', 'E', 'F'
 300:/home/max/chipwhisperer/firmware/mcu/simpleserial/simpleserial.c **** };
 301:/home/max/chipwhisperer/firmware/mcu/simpleserial/simpleserial.c **** 
 302:/home/max/chipwhisperer/firmware/mcu/simpleserial/simpleserial.c **** int hex_decode(int len, char* ascii_buf, uint8_t* data_buf)
 303:/home/max/chipwhisperer/firmware/mcu/simpleserial/simpleserial.c **** {
 304:/home/max/chipwhisperer/firmware/mcu/simpleserial/simpleserial.c **** 	for(int i = 0; i < len; i++)
 305:/home/max/chipwhisperer/firmware/mcu/simpleserial/simpleserial.c **** 	{
 306:/home/max/chipwhisperer/firmware/mcu/simpleserial/simpleserial.c **** 		char n_hi = ascii_buf[2*i];
 307:/home/max/chipwhisperer/firmware/mcu/simpleserial/simpleserial.c **** 		char n_lo = ascii_buf[2*i+1];
 308:/home/max/chipwhisperer/firmware/mcu/simpleserial/simpleserial.c **** 
 309:/home/max/chipwhisperer/firmware/mcu/simpleserial/simpleserial.c **** 		if(n_lo >= '0' && n_lo <= '9')
 310:/home/max/chipwhisperer/firmware/mcu/simpleserial/simpleserial.c **** 			data_buf[i] = n_lo - '0';
 311:/home/max/chipwhisperer/firmware/mcu/simpleserial/simpleserial.c **** 		else if(n_lo >= 'A' && n_lo <= 'F')
 312:/home/max/chipwhisperer/firmware/mcu/simpleserial/simpleserial.c **** 			data_buf[i] = n_lo - 'A' + 10;
 313:/home/max/chipwhisperer/firmware/mcu/simpleserial/simpleserial.c **** 		else if(n_lo >= 'a' && n_lo <= 'f')
 314:/home/max/chipwhisperer/firmware/mcu/simpleserial/simpleserial.c **** 			data_buf[i] = n_lo - 'a' + 10;
 315:/home/max/chipwhisperer/firmware/mcu/simpleserial/simpleserial.c **** 		else
 316:/home/max/chipwhisperer/firmware/mcu/simpleserial/simpleserial.c **** 			return 1;
 317:/home/max/chipwhisperer/firmware/mcu/simpleserial/simpleserial.c **** 
 318:/home/max/chipwhisperer/firmware/mcu/simpleserial/simpleserial.c **** 		if(n_hi >= '0' && n_hi <= '9')
 319:/home/max/chipwhisperer/firmware/mcu/simpleserial/simpleserial.c **** 			data_buf[i] |= (n_hi - '0') << 4;
 320:/home/max/chipwhisperer/firmware/mcu/simpleserial/simpleserial.c **** 		else if(n_hi >= 'A' && n_hi <= 'F')
 321:/home/max/chipwhisperer/firmware/mcu/simpleserial/simpleserial.c **** 			data_buf[i] |= (n_hi - 'A' + 10) << 4;
 322:/home/max/chipwhisperer/firmware/mcu/simpleserial/simpleserial.c **** 		else if(n_hi >= 'a' && n_hi <= 'f')
 323:/home/max/chipwhisperer/firmware/mcu/simpleserial/simpleserial.c **** 			data_buf[i] |= (n_hi - 'a' + 10) << 4;
 324:/home/max/chipwhisperer/firmware/mcu/simpleserial/simpleserial.c **** 		else
 325:/home/max/chipwhisperer/firmware/mcu/simpleserial/simpleserial.c **** 			return 1;
 326:/home/max/chipwhisperer/firmware/mcu/simpleserial/simpleserial.c **** 	}
 327:/home/max/chipwhisperer/firmware/mcu/simpleserial/simpleserial.c **** 
 328:/home/max/chipwhisperer/firmware/mcu/simpleserial/simpleserial.c **** 	return 0;
 329:/home/max/chipwhisperer/firmware/mcu/simpleserial/simpleserial.c **** }
 330:/home/max/chipwhisperer/firmware/mcu/simpleserial/simpleserial.c **** 
 331:/home/max/chipwhisperer/firmware/mcu/simpleserial/simpleserial.c **** 
 332:/home/max/chipwhisperer/firmware/mcu/simpleserial/simpleserial.c **** 
 333:/home/max/chipwhisperer/firmware/mcu/simpleserial/simpleserial.c **** // Set up the SimpleSerial module by preparing internal commands
 334:/home/max/chipwhisperer/firmware/mcu/simpleserial/simpleserial.c **** // This just adds the "v" command for now...
 335:/home/max/chipwhisperer/firmware/mcu/simpleserial/simpleserial.c **** void simpleserial_init()
 336:/home/max/chipwhisperer/firmware/mcu/simpleserial/simpleserial.c **** {
 337:/home/max/chipwhisperer/firmware/mcu/simpleserial/simpleserial.c **** 	simpleserial_addcmd('v', 0, check_version);
 338:/home/max/chipwhisperer/firmware/mcu/simpleserial/simpleserial.c ****     simpleserial_addcmd('w', 0, ss_get_commands);
 339:/home/max/chipwhisperer/firmware/mcu/simpleserial/simpleserial.c ****     simpleserial_addcmd('y', 0, ss_num_commands);
 340:/home/max/chipwhisperer/firmware/mcu/simpleserial/simpleserial.c **** }
 341:/home/max/chipwhisperer/firmware/mcu/simpleserial/simpleserial.c **** 
 342:/home/max/chipwhisperer/firmware/mcu/simpleserial/simpleserial.c **** int simpleserial_addcmd(char c, unsigned int len, uint8_t (*fp)(uint8_t*, uint8_t))
 343:/home/max/chipwhisperer/firmware/mcu/simpleserial/simpleserial.c **** {
 344:/home/max/chipwhisperer/firmware/mcu/simpleserial/simpleserial.c **** 	return simpleserial_addcmd_flags(c, len, fp, CMD_FLAG_NONE);
 345:/home/max/chipwhisperer/firmware/mcu/simpleserial/simpleserial.c **** }
 346:/home/max/chipwhisperer/firmware/mcu/simpleserial/simpleserial.c **** 
 347:/home/max/chipwhisperer/firmware/mcu/simpleserial/simpleserial.c **** int simpleserial_addcmd_flags(char c, unsigned int len, uint8_t (*fp)(uint8_t*, uint8_t), uint8_t f
 348:/home/max/chipwhisperer/firmware/mcu/simpleserial/simpleserial.c **** {
 349:/home/max/chipwhisperer/firmware/mcu/simpleserial/simpleserial.c **** 	if(num_commands >= MAX_SS_CMDS)
 350:/home/max/chipwhisperer/firmware/mcu/simpleserial/simpleserial.c **** 		return 1;
 351:/home/max/chipwhisperer/firmware/mcu/simpleserial/simpleserial.c **** 
 352:/home/max/chipwhisperer/firmware/mcu/simpleserial/simpleserial.c **** 	if(len >= MAX_SS_LEN)
 353:/home/max/chipwhisperer/firmware/mcu/simpleserial/simpleserial.c **** 		return 1;
 354:/home/max/chipwhisperer/firmware/mcu/simpleserial/simpleserial.c **** 
 355:/home/max/chipwhisperer/firmware/mcu/simpleserial/simpleserial.c **** 	commands[num_commands].c   = c;
 356:/home/max/chipwhisperer/firmware/mcu/simpleserial/simpleserial.c **** 	commands[num_commands].len = len;
 357:/home/max/chipwhisperer/firmware/mcu/simpleserial/simpleserial.c **** 	commands[num_commands].fp  = fp;
 358:/home/max/chipwhisperer/firmware/mcu/simpleserial/simpleserial.c **** 	commands[num_commands].flags = fl;
 359:/home/max/chipwhisperer/firmware/mcu/simpleserial/simpleserial.c **** 	num_commands++;
 360:/home/max/chipwhisperer/firmware/mcu/simpleserial/simpleserial.c **** 
 361:/home/max/chipwhisperer/firmware/mcu/simpleserial/simpleserial.c **** 	return 0;
 362:/home/max/chipwhisperer/firmware/mcu/simpleserial/simpleserial.c **** }
 363:/home/max/chipwhisperer/firmware/mcu/simpleserial/simpleserial.c **** 
 364:/home/max/chipwhisperer/firmware/mcu/simpleserial/simpleserial.c **** void simpleserial_get(void)
 365:/home/max/chipwhisperer/firmware/mcu/simpleserial/simpleserial.c **** {
 366:/home/max/chipwhisperer/firmware/mcu/simpleserial/simpleserial.c **** 	char ascii_buf[2*MAX_SS_LEN];
 367:/home/max/chipwhisperer/firmware/mcu/simpleserial/simpleserial.c **** 	uint8_t data_buf[MAX_SS_LEN];
 368:/home/max/chipwhisperer/firmware/mcu/simpleserial/simpleserial.c **** 	char c;
 369:/home/max/chipwhisperer/firmware/mcu/simpleserial/simpleserial.c **** 
 370:/home/max/chipwhisperer/firmware/mcu/simpleserial/simpleserial.c **** 	// Find which command we're receiving
 371:/home/max/chipwhisperer/firmware/mcu/simpleserial/simpleserial.c **** 	c = getch();
 372:/home/max/chipwhisperer/firmware/mcu/simpleserial/simpleserial.c **** 
 373:/home/max/chipwhisperer/firmware/mcu/simpleserial/simpleserial.c **** 	int cmd;
 374:/home/max/chipwhisperer/firmware/mcu/simpleserial/simpleserial.c **** 	for(cmd = 0; cmd < num_commands; cmd++)
 375:/home/max/chipwhisperer/firmware/mcu/simpleserial/simpleserial.c **** 	{
 376:/home/max/chipwhisperer/firmware/mcu/simpleserial/simpleserial.c **** 		if(commands[cmd].c == c)
 377:/home/max/chipwhisperer/firmware/mcu/simpleserial/simpleserial.c **** 			break;
 378:/home/max/chipwhisperer/firmware/mcu/simpleserial/simpleserial.c **** 	}
 379:/home/max/chipwhisperer/firmware/mcu/simpleserial/simpleserial.c **** 
 380:/home/max/chipwhisperer/firmware/mcu/simpleserial/simpleserial.c **** 	// If we didn't find a match, give up right away
 381:/home/max/chipwhisperer/firmware/mcu/simpleserial/simpleserial.c **** 	if(cmd == num_commands)
 382:/home/max/chipwhisperer/firmware/mcu/simpleserial/simpleserial.c **** 		return;
 383:/home/max/chipwhisperer/firmware/mcu/simpleserial/simpleserial.c **** 
 384:/home/max/chipwhisperer/firmware/mcu/simpleserial/simpleserial.c **** 	// If flag CMD_FLAG_LEN is set, the next byte indicates the sent length
 385:/home/max/chipwhisperer/firmware/mcu/simpleserial/simpleserial.c **** 	if ((commands[cmd].flags & CMD_FLAG_LEN) != 0)
 386:/home/max/chipwhisperer/firmware/mcu/simpleserial/simpleserial.c **** 	{
 387:/home/max/chipwhisperer/firmware/mcu/simpleserial/simpleserial.c **** 		uint8_t l = 0;
 388:/home/max/chipwhisperer/firmware/mcu/simpleserial/simpleserial.c **** 		char buff[2];
 389:/home/max/chipwhisperer/firmware/mcu/simpleserial/simpleserial.c **** 		buff[0] = getch();
 390:/home/max/chipwhisperer/firmware/mcu/simpleserial/simpleserial.c **** 		buff[1] = getch();
 391:/home/max/chipwhisperer/firmware/mcu/simpleserial/simpleserial.c **** 		if (hex_decode(1, buff, &l))
 392:/home/max/chipwhisperer/firmware/mcu/simpleserial/simpleserial.c **** 			return;
 393:/home/max/chipwhisperer/firmware/mcu/simpleserial/simpleserial.c **** 		commands[cmd].len = l;
 394:/home/max/chipwhisperer/firmware/mcu/simpleserial/simpleserial.c **** 	}
 395:/home/max/chipwhisperer/firmware/mcu/simpleserial/simpleserial.c **** 
 396:/home/max/chipwhisperer/firmware/mcu/simpleserial/simpleserial.c **** 	// Receive characters until we fill the ASCII buffer
 397:/home/max/chipwhisperer/firmware/mcu/simpleserial/simpleserial.c **** 	for(int i = 0; i < 2*commands[cmd].len; i++)
 398:/home/max/chipwhisperer/firmware/mcu/simpleserial/simpleserial.c **** 	{
 399:/home/max/chipwhisperer/firmware/mcu/simpleserial/simpleserial.c **** 		c = getch();
 400:/home/max/chipwhisperer/firmware/mcu/simpleserial/simpleserial.c **** 
 401:/home/max/chipwhisperer/firmware/mcu/simpleserial/simpleserial.c **** 		// Check for early \n
 402:/home/max/chipwhisperer/firmware/mcu/simpleserial/simpleserial.c **** 		if(c == '\n' || c == '\r')
 403:/home/max/chipwhisperer/firmware/mcu/simpleserial/simpleserial.c **** 			return;
 404:/home/max/chipwhisperer/firmware/mcu/simpleserial/simpleserial.c **** 
 405:/home/max/chipwhisperer/firmware/mcu/simpleserial/simpleserial.c **** 		ascii_buf[i] = c;
 406:/home/max/chipwhisperer/firmware/mcu/simpleserial/simpleserial.c **** 	}
 407:/home/max/chipwhisperer/firmware/mcu/simpleserial/simpleserial.c **** 
 408:/home/max/chipwhisperer/firmware/mcu/simpleserial/simpleserial.c **** 	// Assert that last character is \n or \r
 409:/home/max/chipwhisperer/firmware/mcu/simpleserial/simpleserial.c **** 	c = getch();
 410:/home/max/chipwhisperer/firmware/mcu/simpleserial/simpleserial.c **** 	if(c != '\n' && c != '\r')
 411:/home/max/chipwhisperer/firmware/mcu/simpleserial/simpleserial.c **** 		return;
 412:/home/max/chipwhisperer/firmware/mcu/simpleserial/simpleserial.c **** 
 413:/home/max/chipwhisperer/firmware/mcu/simpleserial/simpleserial.c **** 	// ASCII buffer is full: convert to bytes
 414:/home/max/chipwhisperer/firmware/mcu/simpleserial/simpleserial.c **** 	// Check for illegal characters here
 415:/home/max/chipwhisperer/firmware/mcu/simpleserial/simpleserial.c **** 	if(hex_decode(commands[cmd].len, ascii_buf, data_buf))
 416:/home/max/chipwhisperer/firmware/mcu/simpleserial/simpleserial.c **** 		return;
 417:/home/max/chipwhisperer/firmware/mcu/simpleserial/simpleserial.c **** 
 418:/home/max/chipwhisperer/firmware/mcu/simpleserial/simpleserial.c **** 	// Callback
 419:/home/max/chipwhisperer/firmware/mcu/simpleserial/simpleserial.c **** 	uint8_t ret[1];
 420:/home/max/chipwhisperer/firmware/mcu/simpleserial/simpleserial.c **** 	ret[0] = commands[cmd].fp(data_buf, commands[cmd].len);
 421:/home/max/chipwhisperer/firmware/mcu/simpleserial/simpleserial.c **** 
 422:/home/max/chipwhisperer/firmware/mcu/simpleserial/simpleserial.c **** 	// Acknowledge (if version is 1.1)
 423:/home/max/chipwhisperer/firmware/mcu/simpleserial/simpleserial.c **** #if SS_VER == SS_VER_1_1
 424:/home/max/chipwhisperer/firmware/mcu/simpleserial/simpleserial.c **** 	simpleserial_put('z', 1, ret);
 425:/home/max/chipwhisperer/firmware/mcu/simpleserial/simpleserial.c **** #endif
 426:/home/max/chipwhisperer/firmware/mcu/simpleserial/simpleserial.c **** }
 427:/home/max/chipwhisperer/firmware/mcu/simpleserial/simpleserial.c **** 
 428:/home/max/chipwhisperer/firmware/mcu/simpleserial/simpleserial.c **** void simpleserial_put(char c, uint8_t size, uint8_t* output)
  52              		.loc 1 428 6 is_stmt 1 view -0
  53              		.cfi_startproc
  54              		@ args = 0, pretend = 0, frame = 0
  55              		@ frame_needed = 0, uses_anonymous_args = 0
 429:/home/max/chipwhisperer/firmware/mcu/simpleserial/simpleserial.c **** {
 430:/home/max/chipwhisperer/firmware/mcu/simpleserial/simpleserial.c **** 	// Write first character
 431:/home/max/chipwhisperer/firmware/mcu/simpleserial/simpleserial.c ****     if (!output) return;
 432:/home/max/chipwhisperer/firmware/mcu/simpleserial/simpleserial.c **** 	putch(c);
  56              		.loc 1 432 2 view .LVU5
 428:/home/max/chipwhisperer/firmware/mcu/simpleserial/simpleserial.c **** {
  57              		.loc 1 428 6 is_stmt 0 view .LVU6
  58 0000 F8B5     		push	{r3, r4, r5, r6, r7, lr}
  59              	.LCFI0:
  60              		.cfi_def_cfa_offset 24
  61              		.cfi_offset 3, -24
  62              		.cfi_offset 4, -20
  63              		.cfi_offset 5, -16
  64              		.cfi_offset 6, -12
  65              		.cfi_offset 7, -8
  66              		.cfi_offset 14, -4
 428:/home/max/chipwhisperer/firmware/mcu/simpleserial/simpleserial.c **** {
  67              		.loc 1 428 6 view .LVU7
  68 0002 1446     		mov	r4, r2
  69 0004 0E46     		mov	r6, r1
  70              		.loc 1 432 2 view .LVU8
  71 0006 FFF7FEFF 		bl	putch
  72              	.LVL3:
 433:/home/max/chipwhisperer/firmware/mcu/simpleserial/simpleserial.c **** 
 434:/home/max/chipwhisperer/firmware/mcu/simpleserial/simpleserial.c **** 	// Write each byte as two nibbles
 435:/home/max/chipwhisperer/firmware/mcu/simpleserial/simpleserial.c **** 	for(int i = 0; i < size; i++)
  73              		.loc 1 435 2 is_stmt 1 view .LVU9
  74              	.LBB12:
  75              		.loc 1 435 6 view .LVU10
 436:/home/max/chipwhisperer/firmware/mcu/simpleserial/simpleserial.c **** 	{
 437:/home/max/chipwhisperer/firmware/mcu/simpleserial/simpleserial.c **** 		putch(hex_lookup[output[i] >> 4 ]);
  76              		.loc 1 437 3 is_stmt 0 view .LVU11
  77 000a 0C4F     		ldr	r7, .L5
  78 000c 651E     		subs	r5, r4, #1
 435:/home/max/chipwhisperer/firmware/mcu/simpleserial/simpleserial.c **** 	{
  79              		.loc 1 435 2 view .LVU12
  80 000e C4F10104 		rsb	r4, r4, #1
  81              	.LVL4:
  82              	.L3:
 435:/home/max/chipwhisperer/firmware/mcu/simpleserial/simpleserial.c **** 	{
  83              		.loc 1 435 17 is_stmt 1 view .LVU13
 435:/home/max/chipwhisperer/firmware/mcu/simpleserial/simpleserial.c **** 	{
  84              		.loc 1 435 2 is_stmt 0 view .LVU14
  85 0012 6319     		adds	r3, r4, r5
  86 0014 9E42     		cmp	r6, r3
  87 0016 04DC     		bgt	.L4
  88              	.LBE12:
 438:/home/max/chipwhisperer/firmware/mcu/simpleserial/simpleserial.c **** 		putch(hex_lookup[output[i] & 0xF]);
 439:/home/max/chipwhisperer/firmware/mcu/simpleserial/simpleserial.c **** 	}
 440:/home/max/chipwhisperer/firmware/mcu/simpleserial/simpleserial.c **** 
 441:/home/max/chipwhisperer/firmware/mcu/simpleserial/simpleserial.c **** 	// Write trailing '\n'
 442:/home/max/chipwhisperer/firmware/mcu/simpleserial/simpleserial.c **** 	putch('\n');
  89              		.loc 1 442 2 is_stmt 1 view .LVU15
 443:/home/max/chipwhisperer/firmware/mcu/simpleserial/simpleserial.c **** }
  90              		.loc 1 443 1 is_stmt 0 view .LVU16
  91 0018 BDE8F840 		pop	{r3, r4, r5, r6, r7, lr}
  92              	.LCFI1:
  93              		.cfi_remember_state
  94              		.cfi_restore 14
  95              		.cfi_restore 7
  96              		.cfi_restore 6
  97              		.cfi_restore 5
  98              		.cfi_restore 4
  99              		.cfi_restore 3
 100              		.cfi_def_cfa_offset 0
 442:/home/max/chipwhisperer/firmware/mcu/simpleserial/simpleserial.c **** }
 101              		.loc 1 442 2 view .LVU17
 102 001c 0A20     		movs	r0, #10
 103 001e FFF7FEBF 		b	putch
 104              	.LVL5:
 105              	.L4:
 106              	.LCFI2:
 107              		.cfi_restore_state
 108              	.LBB13:
 437:/home/max/chipwhisperer/firmware/mcu/simpleserial/simpleserial.c **** 		putch(hex_lookup[output[i] & 0xF]);
 109              		.loc 1 437 3 is_stmt 1 view .LVU18
 437:/home/max/chipwhisperer/firmware/mcu/simpleserial/simpleserial.c **** 		putch(hex_lookup[output[i] & 0xF]);
 110              		.loc 1 437 30 is_stmt 0 view .LVU19
 111 0022 15F8013F 		ldrb	r3, [r5, #1]!	@ zero_extendqisi2
 112 0026 1B09     		lsrs	r3, r3, #4
 437:/home/max/chipwhisperer/firmware/mcu/simpleserial/simpleserial.c **** 		putch(hex_lookup[output[i] & 0xF]);
 113              		.loc 1 437 3 view .LVU20
 114 0028 F85C     		ldrb	r0, [r7, r3]	@ zero_extendqisi2
 115 002a FFF7FEFF 		bl	putch
 116              	.LVL6:
 438:/home/max/chipwhisperer/firmware/mcu/simpleserial/simpleserial.c **** 	}
 117              		.loc 1 438 3 is_stmt 1 view .LVU21
 438:/home/max/chipwhisperer/firmware/mcu/simpleserial/simpleserial.c **** 	}
 118              		.loc 1 438 30 is_stmt 0 view .LVU22
 119 002e 2B78     		ldrb	r3, [r5]	@ zero_extendqisi2
 120 0030 03F00F03 		and	r3, r3, #15
 438:/home/max/chipwhisperer/firmware/mcu/simpleserial/simpleserial.c **** 	}
 121              		.loc 1 438 3 view .LVU23
 122 0034 F85C     		ldrb	r0, [r7, r3]	@ zero_extendqisi2
 123 0036 FFF7FEFF 		bl	putch
 124              	.LVL7:
 435:/home/max/chipwhisperer/firmware/mcu/simpleserial/simpleserial.c **** 	{
 125              		.loc 1 435 27 is_stmt 1 view .LVU24
 126 003a EAE7     		b	.L3
 127              	.L6:
 128              		.align	2
 129              	.L5:
 130 003c 00000000 		.word	.LANCHOR0
 131              	.LBE13:
 132              		.cfi_endproc
 133              	.LFE10:
 135              		.section	.text.ss_num_commands,"ax",%progbits
 136              		.align	1
 137              		.global	ss_num_commands
 138              		.syntax unified
 139              		.thumb
 140              		.thumb_func
 141              		.fpu softvfp
 143              	ss_num_commands:
 144              	.LVL8:
 145              	.LFB2:
 271:/home/max/chipwhisperer/firmware/mcu/simpleserial/simpleserial.c ****     uint8_t ncmds = num_commands & 0xFF;
 146              		.loc 1 271 1 view -0
 147              		.cfi_startproc
 148              		@ args = 0, pretend = 0, frame = 8
 149              		@ frame_needed = 0, uses_anonymous_args = 0
 272:/home/max/chipwhisperer/firmware/mcu/simpleserial/simpleserial.c ****     simpleserial_put('r', 0x01, &ncmds);
 150              		.loc 1 272 5 view .LVU26
 271:/home/max/chipwhisperer/firmware/mcu/simpleserial/simpleserial.c ****     uint8_t ncmds = num_commands & 0xFF;
 151              		.loc 1 271 1 is_stmt 0 view .LVU27
 152 0000 07B5     		push	{r0, r1, r2, lr}
 153              	.LCFI3:
 154              		.cfi_def_cfa_offset 16
 155              		.cfi_offset 14, -4
 272:/home/max/chipwhisperer/firmware/mcu/simpleserial/simpleserial.c ****     simpleserial_put('r', 0x01, &ncmds);
 156              		.loc 1 272 13 view .LVU28
 157 0002 074B     		ldr	r3, .L8
 158              	.LBB14:
 159              	.LBB15:
 160 0004 0DF10702 		add	r2, sp, #7
 161              	.LBE15:
 162              	.LBE14:
 163 0008 1B68     		ldr	r3, [r3]
 164 000a 8DF80730 		strb	r3, [sp, #7]
 273:/home/max/chipwhisperer/firmware/mcu/simpleserial/simpleserial.c ****     return 0x00;
 165              		.loc 1 273 5 is_stmt 1 view .LVU29
 166              	.LVL9:
 167              	.LBB17:
 168              	.LBI14:
 428:/home/max/chipwhisperer/firmware/mcu/simpleserial/simpleserial.c **** {
 169              		.loc 1 428 6 view .LVU30
 170              	.LBB16:
 431:/home/max/chipwhisperer/firmware/mcu/simpleserial/simpleserial.c **** 	putch(c);
 171              		.loc 1 431 5 view .LVU31
 172 000e 0121     		movs	r1, #1
 173              	.LVL10:
 431:/home/max/chipwhisperer/firmware/mcu/simpleserial/simpleserial.c **** 	putch(c);
 174              		.loc 1 431 5 is_stmt 0 view .LVU32
 175 0010 7220     		movs	r0, #114
 176              	.LVL11:
 431:/home/max/chipwhisperer/firmware/mcu/simpleserial/simpleserial.c **** 	putch(c);
 177              		.loc 1 431 5 view .LVU33
 178 0012 FFF7FEFF 		bl	simpleserial_put.part.0
 179              	.LVL12:
 431:/home/max/chipwhisperer/firmware/mcu/simpleserial/simpleserial.c **** 	putch(c);
 180              		.loc 1 431 5 view .LVU34
 181              	.LBE16:
 182              	.LBE17:
 274:/home/max/chipwhisperer/firmware/mcu/simpleserial/simpleserial.c **** }
 183              		.loc 1 274 5 is_stmt 1 view .LVU35
 275:/home/max/chipwhisperer/firmware/mcu/simpleserial/simpleserial.c **** 
 184              		.loc 1 275 1 is_stmt 0 view .LVU36
 185 0016 0020     		movs	r0, #0
 186 0018 03B0     		add	sp, sp, #12
 187              	.LCFI4:
 188              		.cfi_def_cfa_offset 4
 189              		@ sp needed
 190 001a 5DF804FB 		ldr	pc, [sp], #4
 191              	.L9:
 192 001e 00BF     		.align	2
 193              	.L8:
 194 0020 00000000 		.word	.LANCHOR1
 195              		.cfi_endproc
 196              	.LFE2:
 198              		.section	.text.ss_get_commands,"ax",%progbits
 199              		.align	1
 200              		.global	ss_get_commands
 201              		.syntax unified
 202              		.thumb
 203              		.thumb_func
 204              		.fpu softvfp
 206              	ss_get_commands:
 207              	.LVL13:
 208              	.LFB3:
 284:/home/max/chipwhisperer/firmware/mcu/simpleserial/simpleserial.c ****     ss_cmd_repr repr_cmd_buf[MAX_SS_CMDS];
 209              		.loc 1 284 1 is_stmt 1 view -0
 210              		.cfi_startproc
 211              		@ args = 0, pretend = 0, frame = 96
 212              		@ frame_needed = 0, uses_anonymous_args = 0
 285:/home/max/chipwhisperer/firmware/mcu/simpleserial/simpleserial.c ****     for (uint8_t i = 0; i < (num_commands & 0xFF); i++) {
 213              		.loc 1 285 5 view .LVU38
 286:/home/max/chipwhisperer/firmware/mcu/simpleserial/simpleserial.c ****         repr_cmd_buf[i].c = commands[i].c;
 214              		.loc 1 286 5 view .LVU39
 215              	.LBB18:
 286:/home/max/chipwhisperer/firmware/mcu/simpleserial/simpleserial.c ****         repr_cmd_buf[i].c = commands[i].c;
 216              		.loc 1 286 10 view .LVU40
 286:/home/max/chipwhisperer/firmware/mcu/simpleserial/simpleserial.c ****         repr_cmd_buf[i].c = commands[i].c;
 217              		.loc 1 286 10 is_stmt 0 view .LVU41
 218              	.LBE18:
 284:/home/max/chipwhisperer/firmware/mcu/simpleserial/simpleserial.c ****     ss_cmd_repr repr_cmd_buf[MAX_SS_CMDS];
 219              		.loc 1 284 1 view .LVU42
 220 0000 70B5     		push	{r4, r5, r6, lr}
 221              	.LCFI5:
 222              		.cfi_def_cfa_offset 16
 223              		.cfi_offset 4, -16
 224              		.cfi_offset 5, -12
 225              		.cfi_offset 6, -8
 226              		.cfi_offset 14, -4
 227              	.LBB19:
 286:/home/max/chipwhisperer/firmware/mcu/simpleserial/simpleserial.c ****         repr_cmd_buf[i].c = commands[i].c;
 228              		.loc 1 286 43 view .LVU43
 229 0002 124C     		ldr	r4, .L13
 230 0004 2168     		ldr	r1, [r4]
 231              	.LVL14:
 286:/home/max/chipwhisperer/firmware/mcu/simpleserial/simpleserial.c ****         repr_cmd_buf[i].c = commands[i].c;
 232              		.loc 1 286 43 view .LVU44
 233              	.LBE19:
 284:/home/max/chipwhisperer/firmware/mcu/simpleserial/simpleserial.c ****     ss_cmd_repr repr_cmd_buf[MAX_SS_CMDS];
 234              		.loc 1 284 1 view .LVU45
 235 0006 98B0     		sub	sp, sp, #96
 236              	.LCFI6:
 237              		.cfi_def_cfa_offset 112
 238              	.LBB20:
 286:/home/max/chipwhisperer/firmware/mcu/simpleserial/simpleserial.c ****         repr_cmd_buf[i].c = commands[i].c;
 239              		.loc 1 286 43 view .LVU46
 240 0008 CDB2     		uxtb	r5, r1
 286:/home/max/chipwhisperer/firmware/mcu/simpleserial/simpleserial.c ****         repr_cmd_buf[i].c = commands[i].c;
 241              		.loc 1 286 5 view .LVU47
 242 000a 0020     		movs	r0, #0
 243              	.LVL15:
 244              	.L11:
 286:/home/max/chipwhisperer/firmware/mcu/simpleserial/simpleserial.c ****         repr_cmd_buf[i].c = commands[i].c;
 245              		.loc 1 286 25 is_stmt 1 discriminator 1 view .LVU48
 286:/home/max/chipwhisperer/firmware/mcu/simpleserial/simpleserial.c ****         repr_cmd_buf[i].c = commands[i].c;
 246              		.loc 1 286 27 is_stmt 0 discriminator 1 view .LVU49
 247 000c C3B2     		uxtb	r3, r0
 286:/home/max/chipwhisperer/firmware/mcu/simpleserial/simpleserial.c ****         repr_cmd_buf[i].c = commands[i].c;
 248              		.loc 1 286 5 discriminator 1 view .LVU50
 249 000e AB42     		cmp	r3, r5
 250 0010 00F10100 		add	r0, r0, #1
 251              	.LVL16:
 286:/home/max/chipwhisperer/firmware/mcu/simpleserial/simpleserial.c ****         repr_cmd_buf[i].c = commands[i].c;
 252              		.loc 1 286 5 discriminator 1 view .LVU51
 253 0014 09DB     		blt	.L12
 254              	.LBE20:
 292:/home/max/chipwhisperer/firmware/mcu/simpleserial/simpleserial.c ****     return 0x00;
 255              		.loc 1 292 5 is_stmt 1 view .LVU52
 256              	.LVL17:
 257              	.LBB21:
 258              	.LBI21:
 428:/home/max/chipwhisperer/firmware/mcu/simpleserial/simpleserial.c **** {
 259              		.loc 1 428 6 view .LVU53
 260              	.LBB22:
 431:/home/max/chipwhisperer/firmware/mcu/simpleserial/simpleserial.c **** 	putch(c);
 261              		.loc 1 431 5 view .LVU54
 262              	.LBE22:
 263              	.LBE21:
 292:/home/max/chipwhisperer/firmware/mcu/simpleserial/simpleserial.c ****     return 0x00;
 264              		.loc 1 292 5 is_stmt 0 view .LVU55
 265 0016 01EB4101 		add	r1, r1, r1, lsl #1
 266              	.LVL18:
 267              	.LBB24:
 268              	.LBB23:
 292:/home/max/chipwhisperer/firmware/mcu/simpleserial/simpleserial.c ****     return 0x00;
 269              		.loc 1 292 5 view .LVU56
 270 001a 6A46     		mov	r2, sp
 271 001c C9B2     		uxtb	r1, r1
 272 001e 7220     		movs	r0, #114
 273 0020 FFF7FEFF 		bl	simpleserial_put.part.0
 274              	.LVL19:
 292:/home/max/chipwhisperer/firmware/mcu/simpleserial/simpleserial.c ****     return 0x00;
 275              		.loc 1 292 5 view .LVU57
 276              	.LBE23:
 277              	.LBE24:
 293:/home/max/chipwhisperer/firmware/mcu/simpleserial/simpleserial.c **** }
 278              		.loc 1 293 5 is_stmt 1 view .LVU58
 294:/home/max/chipwhisperer/firmware/mcu/simpleserial/simpleserial.c **** 
 279              		.loc 1 294 1 is_stmt 0 view .LVU59
 280 0024 0020     		movs	r0, #0
 281 0026 18B0     		add	sp, sp, #96
 282              	.LCFI7:
 283              		.cfi_remember_state
 284              		.cfi_def_cfa_offset 16
 285              		@ sp needed
 286 0028 70BD     		pop	{r4, r5, r6, pc}
 287              	.LVL20:
 288              	.L12:
 289              	.LCFI8:
 290              		.cfi_restore_state
 291              	.LBB25:
 287:/home/max/chipwhisperer/firmware/mcu/simpleserial/simpleserial.c ****         repr_cmd_buf[i].len = commands[i].len;
 292              		.loc 1 287 9 is_stmt 1 discriminator 3 view .LVU60
 287:/home/max/chipwhisperer/firmware/mcu/simpleserial/simpleserial.c ****         repr_cmd_buf[i].len = commands[i].len;
 293              		.loc 1 287 27 is_stmt 0 discriminator 3 view .LVU61
 294 002a 03EB4302 		add	r2, r3, r3, lsl #1
 295 002e 6032     		adds	r2, r2, #96
 287:/home/max/chipwhisperer/firmware/mcu/simpleserial/simpleserial.c ****         repr_cmd_buf[i].len = commands[i].len;
 296              		.loc 1 287 40 discriminator 3 view .LVU62
 297 0030 04EB0313 		add	r3, r4, r3, lsl #4
 298              	.LVL21:
 287:/home/max/chipwhisperer/firmware/mcu/simpleserial/simpleserial.c ****         repr_cmd_buf[i].len = commands[i].len;
 299              		.loc 1 287 27 discriminator 3 view .LVU63
 300 0034 6A44     		add	r2, sp, r2
 301 0036 1E79     		ldrb	r6, [r3, #4]	@ zero_extendqisi2
 302 0038 02F8606C 		strb	r6, [r2, #-96]
 288:/home/max/chipwhisperer/firmware/mcu/simpleserial/simpleserial.c ****         repr_cmd_buf[i].flags = commands[i].flags;
 303              		.loc 1 288 9 is_stmt 1 discriminator 3 view .LVU64
 288:/home/max/chipwhisperer/firmware/mcu/simpleserial/simpleserial.c ****         repr_cmd_buf[i].flags = commands[i].flags;
 304              		.loc 1 288 29 is_stmt 0 discriminator 3 view .LVU65
 305 003c 9E68     		ldr	r6, [r3, #8]
 289:/home/max/chipwhisperer/firmware/mcu/simpleserial/simpleserial.c ****     }
 306              		.loc 1 289 31 discriminator 3 view .LVU66
 307 003e 1B7C     		ldrb	r3, [r3, #16]	@ zero_extendqisi2
 288:/home/max/chipwhisperer/firmware/mcu/simpleserial/simpleserial.c ****         repr_cmd_buf[i].flags = commands[i].flags;
 308              		.loc 1 288 29 discriminator 3 view .LVU67
 309 0040 02F85F6C 		strb	r6, [r2, #-95]
 289:/home/max/chipwhisperer/firmware/mcu/simpleserial/simpleserial.c ****     }
 310              		.loc 1 289 9 is_stmt 1 discriminator 3 view .LVU68
 289:/home/max/chipwhisperer/firmware/mcu/simpleserial/simpleserial.c ****     }
 311              		.loc 1 289 31 is_stmt 0 discriminator 3 view .LVU69
 312 0044 02F85E3C 		strb	r3, [r2, #-94]
 286:/home/max/chipwhisperer/firmware/mcu/simpleserial/simpleserial.c ****         repr_cmd_buf[i].c = commands[i].c;
 313              		.loc 1 286 52 is_stmt 1 discriminator 3 view .LVU70
 314              	.LVL22:
 286:/home/max/chipwhisperer/firmware/mcu/simpleserial/simpleserial.c ****         repr_cmd_buf[i].c = commands[i].c;
 315              		.loc 1 286 52 is_stmt 0 discriminator 3 view .LVU71
 316 0048 E0E7     		b	.L11
 317              	.L14:
 318 004a 00BF     		.align	2
 319              	.L13:
 320 004c 00000000 		.word	.LANCHOR1
 321              	.LBE25:
 322              		.cfi_endproc
 323              	.LFE3:
 325              		.section	.text.ss_crc,"ax",%progbits
 326              		.align	1
 327              		.global	ss_crc
 328              		.syntax unified
 329              		.thumb
 330              		.thumb_func
 331              		.fpu softvfp
 333              	ss_crc:
 334              	.LVL23:
 335              	.LFB0:
  20:/home/max/chipwhisperer/firmware/mcu/simpleserial/simpleserial.c **** 	unsigned int k = 0;
 336              		.loc 1 20 1 is_stmt 1 view -0
 337              		.cfi_startproc
 338              		@ args = 0, pretend = 0, frame = 0
 339              		@ frame_needed = 0, uses_anonymous_args = 0
 340              		@ link register save eliminated.
  20:/home/max/chipwhisperer/firmware/mcu/simpleserial/simpleserial.c **** 	unsigned int k = 0;
 341              		.loc 1 20 1 is_stmt 0 view .LVU73
 342 0000 0346     		mov	r3, r0
  21:/home/max/chipwhisperer/firmware/mcu/simpleserial/simpleserial.c **** 	uint8_t crc = 0x00;
 343              		.loc 1 21 2 is_stmt 1 view .LVU74
 344              	.LVL24:
  22:/home/max/chipwhisperer/firmware/mcu/simpleserial/simpleserial.c **** 	while (len--) {
 345              		.loc 1 22 2 view .LVU75
  23:/home/max/chipwhisperer/firmware/mcu/simpleserial/simpleserial.c **** 		crc ^= *buf++;
 346              		.loc 1 23 2 view .LVU76
 347 0002 0144     		add	r1, r1, r0
 348              	.LVL25:
  22:/home/max/chipwhisperer/firmware/mcu/simpleserial/simpleserial.c **** 	while (len--) {
 349              		.loc 1 22 10 is_stmt 0 view .LVU77
 350 0004 0020     		movs	r0, #0
 351              	.LVL26:
 352              	.L16:
  23:/home/max/chipwhisperer/firmware/mcu/simpleserial/simpleserial.c **** 		crc ^= *buf++;
 353              		.loc 1 23 8 is_stmt 1 view .LVU78
  23:/home/max/chipwhisperer/firmware/mcu/simpleserial/simpleserial.c **** 		crc ^= *buf++;
 354              		.loc 1 23 8 is_stmt 0 view .LVU79
 355 0006 8B42     		cmp	r3, r1
 356 0008 00D1     		bne	.L20
  29:/home/max/chipwhisperer/firmware/mcu/simpleserial/simpleserial.c **** 
 357              		.loc 1 29 2 is_stmt 1 view .LVU80
  31:/home/max/chipwhisperer/firmware/mcu/simpleserial/simpleserial.c **** 
 358              		.loc 1 31 1 is_stmt 0 view .LVU81
 359 000a 7047     		bx	lr
 360              	.L20:
  24:/home/max/chipwhisperer/firmware/mcu/simpleserial/simpleserial.c **** 		for (k = 0; k < 8; k++) {
 361              		.loc 1 24 3 is_stmt 1 view .LVU82
 362              	.LVL27:
  24:/home/max/chipwhisperer/firmware/mcu/simpleserial/simpleserial.c **** 		for (k = 0; k < 8; k++) {
 363              		.loc 1 24 7 is_stmt 0 view .LVU83
 364 000c 13F8012B 		ldrb	r2, [r3], #1	@ zero_extendqisi2
 365              	.LVL28:
  24:/home/max/chipwhisperer/firmware/mcu/simpleserial/simpleserial.c **** 		for (k = 0; k < 8; k++) {
 366              		.loc 1 24 7 view .LVU84
 367 0010 5040     		eors	r0, r0, r2
 368              	.LVL29:
  25:/home/max/chipwhisperer/firmware/mcu/simpleserial/simpleserial.c **** 			crc = crc & 0x80 ? (crc << 1) ^ CW_CRC: crc << 1;
 369              		.loc 1 25 3 is_stmt 1 view .LVU85
  25:/home/max/chipwhisperer/firmware/mcu/simpleserial/simpleserial.c **** 			crc = crc & 0x80 ? (crc << 1) ^ CW_CRC: crc << 1;
 370              		.loc 1 25 15 view .LVU86
  24:/home/max/chipwhisperer/firmware/mcu/simpleserial/simpleserial.c **** 		for (k = 0; k < 8; k++) {
 371              		.loc 1 24 7 is_stmt 0 view .LVU87
 372 0012 0822     		movs	r2, #8
 373              	.LVL30:
 374              	.L19:
  26:/home/max/chipwhisperer/firmware/mcu/simpleserial/simpleserial.c **** 		}
 375              		.loc 1 26 4 is_stmt 1 view .LVU88
  26:/home/max/chipwhisperer/firmware/mcu/simpleserial/simpleserial.c **** 		}
 376              		.loc 1 26 8 is_stmt 0 view .LVU89
 377 0014 10F0800F 		tst	r0, #128
 378 0018 4FEA4000 		lsl	r0, r0, #1
 379              	.LVL31:
  26:/home/max/chipwhisperer/firmware/mcu/simpleserial/simpleserial.c **** 		}
 380              		.loc 1 26 34 view .LVU90
 381 001c 18BF     		it	ne
 382 001e 80F04D00 		eorne	r0, r0, #77
  25:/home/max/chipwhisperer/firmware/mcu/simpleserial/simpleserial.c **** 			crc = crc & 0x80 ? (crc << 1) ^ CW_CRC: crc << 1;
 383              		.loc 1 25 3 view .LVU91
 384 0022 013A     		subs	r2, r2, #1
 385              	.LVL32:
  26:/home/max/chipwhisperer/firmware/mcu/simpleserial/simpleserial.c **** 		}
 386              		.loc 1 26 8 view .LVU92
 387 0024 C0B2     		uxtb	r0, r0
 388              	.LVL33:
  25:/home/max/chipwhisperer/firmware/mcu/simpleserial/simpleserial.c **** 			crc = crc & 0x80 ? (crc << 1) ^ CW_CRC: crc << 1;
 389              		.loc 1 25 22 is_stmt 1 view .LVU93
  25:/home/max/chipwhisperer/firmware/mcu/simpleserial/simpleserial.c **** 			crc = crc & 0x80 ? (crc << 1) ^ CW_CRC: crc << 1;
 390              		.loc 1 25 15 view .LVU94
  25:/home/max/chipwhisperer/firmware/mcu/simpleserial/simpleserial.c **** 			crc = crc & 0x80 ? (crc << 1) ^ CW_CRC: crc << 1;
 391              		.loc 1 25 3 is_stmt 0 view .LVU95
 392 0026 F5D1     		bne	.L19
 393 0028 EDE7     		b	.L16
 394              		.cfi_endproc
 395              	.LFE0:
 397              		.section	.text.hex_decode,"ax",%progbits
 398              		.align	1
 399              		.global	hex_decode
 400              		.syntax unified
 401              		.thumb
 402              		.thumb_func
 403              		.fpu softvfp
 405              	hex_decode:
 406              	.LVL34:
 407              	.LFB4:
 303:/home/max/chipwhisperer/firmware/mcu/simpleserial/simpleserial.c **** 	for(int i = 0; i < len; i++)
 408              		.loc 1 303 1 is_stmt 1 view -0
 409              		.cfi_startproc
 410              		@ args = 0, pretend = 0, frame = 0
 411              		@ frame_needed = 0, uses_anonymous_args = 0
 304:/home/max/chipwhisperer/firmware/mcu/simpleserial/simpleserial.c **** 	{
 412              		.loc 1 304 2 view .LVU97
 413              	.LBB26:
 304:/home/max/chipwhisperer/firmware/mcu/simpleserial/simpleserial.c **** 	{
 414              		.loc 1 304 6 view .LVU98
 304:/home/max/chipwhisperer/firmware/mcu/simpleserial/simpleserial.c **** 	{
 415              		.loc 1 304 6 is_stmt 0 view .LVU99
 416              	.LBE26:
 303:/home/max/chipwhisperer/firmware/mcu/simpleserial/simpleserial.c **** 	for(int i = 0; i < len; i++)
 417              		.loc 1 303 1 view .LVU100
 418 0000 F0B5     		push	{r4, r5, r6, r7, lr}
 419              	.LCFI9:
 420              		.cfi_def_cfa_offset 20
 421              		.cfi_offset 4, -20
 422              		.cfi_offset 5, -16
 423              		.cfi_offset 6, -12
 424              		.cfi_offset 7, -8
 425              		.cfi_offset 14, -4
 426              	.LBB31:
 304:/home/max/chipwhisperer/firmware/mcu/simpleserial/simpleserial.c **** 	{
 427              		.loc 1 304 10 view .LVU101
 428 0002 0025     		movs	r5, #0
 429              	.LBB27:
 307:/home/max/chipwhisperer/firmware/mcu/simpleserial/simpleserial.c **** 
 430              		.loc 1 307 8 view .LVU102
 431 0004 4F1C     		adds	r7, r1, #1
 432              	.LVL35:
 433              	.L23:
 307:/home/max/chipwhisperer/firmware/mcu/simpleserial/simpleserial.c **** 
 434              		.loc 1 307 8 view .LVU103
 435              	.LBE27:
 304:/home/max/chipwhisperer/firmware/mcu/simpleserial/simpleserial.c **** 	{
 436              		.loc 1 304 17 is_stmt 1 discriminator 1 view .LVU104
 304:/home/max/chipwhisperer/firmware/mcu/simpleserial/simpleserial.c **** 	{
 437              		.loc 1 304 2 is_stmt 0 discriminator 1 view .LVU105
 438 0006 8542     		cmp	r5, r0
 439 0008 01DB     		blt	.L33
 440              	.LBE31:
 328:/home/max/chipwhisperer/firmware/mcu/simpleserial/simpleserial.c **** }
 441              		.loc 1 328 9 view .LVU106
 442 000a 0020     		movs	r0, #0
 443              	.LVL36:
 328:/home/max/chipwhisperer/firmware/mcu/simpleserial/simpleserial.c **** }
 444              		.loc 1 328 9 view .LVU107
 445 000c 21E0     		b	.L22
 446              	.LVL37:
 447              	.L33:
 448              	.LBB32:
 449              	.LBB28:
 306:/home/max/chipwhisperer/firmware/mcu/simpleserial/simpleserial.c **** 		char n_lo = ascii_buf[2*i+1];
 450              		.loc 1 306 3 is_stmt 1 view .LVU108
 307:/home/max/chipwhisperer/firmware/mcu/simpleserial/simpleserial.c **** 
 451              		.loc 1 307 8 is_stmt 0 view .LVU109
 452 000e 17F81540 		ldrb	r4, [r7, r5, lsl #1]	@ zero_extendqisi2
 306:/home/max/chipwhisperer/firmware/mcu/simpleserial/simpleserial.c **** 		char n_lo = ascii_buf[2*i+1];
 453              		.loc 1 306 8 view .LVU110
 454 0012 11F81530 		ldrb	r3, [r1, r5, lsl #1]	@ zero_extendqisi2
 455              	.LVL38:
 307:/home/max/chipwhisperer/firmware/mcu/simpleserial/simpleserial.c **** 
 456              		.loc 1 307 3 is_stmt 1 view .LVU111
 309:/home/max/chipwhisperer/firmware/mcu/simpleserial/simpleserial.c **** 			data_buf[i] = n_lo - '0';
 457              		.loc 1 309 3 view .LVU112
 309:/home/max/chipwhisperer/firmware/mcu/simpleserial/simpleserial.c **** 			data_buf[i] = n_lo - '0';
 458              		.loc 1 309 18 is_stmt 0 view .LVU113
 459 0016 A4F13006 		sub	r6, r4, #48
 460 001a F6B2     		uxtb	r6, r6
 309:/home/max/chipwhisperer/firmware/mcu/simpleserial/simpleserial.c **** 			data_buf[i] = n_lo - '0';
 461              		.loc 1 309 5 view .LVU114
 462 001c 092E     		cmp	r6, #9
 463 001e 0CD8     		bhi	.L24
 310:/home/max/chipwhisperer/firmware/mcu/simpleserial/simpleserial.c **** 		else if(n_lo >= 'A' && n_lo <= 'F')
 464              		.loc 1 310 4 is_stmt 1 view .LVU115
 310:/home/max/chipwhisperer/firmware/mcu/simpleserial/simpleserial.c **** 		else if(n_lo >= 'A' && n_lo <= 'F')
 465              		.loc 1 310 16 is_stmt 0 view .LVU116
 466 0020 1670     		strb	r6, [r2]
 467              	.LVL39:
 468              	.L25:
 318:/home/max/chipwhisperer/firmware/mcu/simpleserial/simpleserial.c **** 			data_buf[i] |= (n_hi - '0') << 4;
 469              		.loc 1 318 3 is_stmt 1 view .LVU117
 318:/home/max/chipwhisperer/firmware/mcu/simpleserial/simpleserial.c **** 			data_buf[i] |= (n_hi - '0') << 4;
 470              		.loc 1 318 18 is_stmt 0 view .LVU118
 471 0022 A3F13004 		sub	r4, r3, #48
 318:/home/max/chipwhisperer/firmware/mcu/simpleserial/simpleserial.c **** 			data_buf[i] |= (n_hi - '0') << 4;
 472              		.loc 1 318 5 view .LVU119
 473 0026 E6B2     		uxtb	r6, r4
 474 0028 092E     		cmp	r6, #9
 475 002a 15D8     		bhi	.L29
 476              	.L36:
 321:/home/max/chipwhisperer/firmware/mcu/simpleserial/simpleserial.c **** 		else if(n_hi >= 'a' && n_hi <= 'f')
 477              		.loc 1 321 16 view .LVU120
 478 002c 1378     		ldrb	r3, [r2]	@ zero_extendqisi2
 479              	.LVL40:
 321:/home/max/chipwhisperer/firmware/mcu/simpleserial/simpleserial.c **** 		else if(n_hi >= 'a' && n_hi <= 'f')
 480              		.loc 1 321 16 view .LVU121
 481 002e 43EA0413 		orr	r3, r3, r4, lsl #4
 482              	.L35:
 323:/home/max/chipwhisperer/firmware/mcu/simpleserial/simpleserial.c **** 		else
 483              		.loc 1 323 16 view .LVU122
 484 0032 1370     		strb	r3, [r2]
 485              	.LBE28:
 304:/home/max/chipwhisperer/firmware/mcu/simpleserial/simpleserial.c **** 	{
 486              		.loc 1 304 26 is_stmt 1 view .LVU123
 304:/home/max/chipwhisperer/firmware/mcu/simpleserial/simpleserial.c **** 	{
 487              		.loc 1 304 27 is_stmt 0 view .LVU124
 488 0034 0135     		adds	r5, r5, #1
 489              	.LVL41:
 304:/home/max/chipwhisperer/firmware/mcu/simpleserial/simpleserial.c **** 	{
 490              		.loc 1 304 27 view .LVU125
 491 0036 0132     		adds	r2, r2, #1
 492 0038 E5E7     		b	.L23
 493              	.LVL42:
 494              	.L24:
 495              	.LBB29:
 311:/home/max/chipwhisperer/firmware/mcu/simpleserial/simpleserial.c **** 			data_buf[i] = n_lo - 'A' + 10;
 496              		.loc 1 311 8 is_stmt 1 view .LVU126
 311:/home/max/chipwhisperer/firmware/mcu/simpleserial/simpleserial.c **** 			data_buf[i] = n_lo - 'A' + 10;
 497              		.loc 1 311 10 is_stmt 0 view .LVU127
 498 003a A4F14106 		sub	r6, r4, #65
 499 003e 052E     		cmp	r6, #5
 500 0040 02D8     		bhi	.L26
 312:/home/max/chipwhisperer/firmware/mcu/simpleserial/simpleserial.c **** 		else if(n_lo >= 'a' && n_lo <= 'f')
 501              		.loc 1 312 4 is_stmt 1 view .LVU128
 312:/home/max/chipwhisperer/firmware/mcu/simpleserial/simpleserial.c **** 		else if(n_lo >= 'a' && n_lo <= 'f')
 502              		.loc 1 312 29 is_stmt 0 view .LVU129
 503 0042 373C     		subs	r4, r4, #55
 504              	.LVL43:
 505              	.L34:
 314:/home/max/chipwhisperer/firmware/mcu/simpleserial/simpleserial.c **** 		else
 506              		.loc 1 314 16 view .LVU130
 507 0044 1470     		strb	r4, [r2]
 508              	.LVL44:
 314:/home/max/chipwhisperer/firmware/mcu/simpleserial/simpleserial.c **** 		else
 509              		.loc 1 314 16 view .LVU131
 510 0046 ECE7     		b	.L25
 511              	.LVL45:
 512              	.L26:
 313:/home/max/chipwhisperer/firmware/mcu/simpleserial/simpleserial.c **** 			data_buf[i] = n_lo - 'a' + 10;
 513              		.loc 1 313 8 is_stmt 1 view .LVU132
 313:/home/max/chipwhisperer/firmware/mcu/simpleserial/simpleserial.c **** 			data_buf[i] = n_lo - 'a' + 10;
 514              		.loc 1 313 10 is_stmt 0 view .LVU133
 515 0048 A4F16106 		sub	r6, r4, #97
 516 004c 052E     		cmp	r6, #5
 517 004e 01D9     		bls	.L27
 518              	.LVL46:
 519              	.L32:
 316:/home/max/chipwhisperer/firmware/mcu/simpleserial/simpleserial.c **** 
 520              		.loc 1 316 11 view .LVU134
 521 0050 0120     		movs	r0, #1
 522              	.LVL47:
 523              	.L22:
 316:/home/max/chipwhisperer/firmware/mcu/simpleserial/simpleserial.c **** 
 524              		.loc 1 316 11 view .LVU135
 525              	.LBE29:
 526              	.LBE32:
 329:/home/max/chipwhisperer/firmware/mcu/simpleserial/simpleserial.c **** 
 527              		.loc 1 329 1 view .LVU136
 528 0052 F0BD     		pop	{r4, r5, r6, r7, pc}
 529              	.LVL48:
 530              	.L27:
 531              	.LBB33:
 532              	.LBB30:
 314:/home/max/chipwhisperer/firmware/mcu/simpleserial/simpleserial.c **** 		else
 533              		.loc 1 314 4 is_stmt 1 view .LVU137
 314:/home/max/chipwhisperer/firmware/mcu/simpleserial/simpleserial.c **** 		else
 534              		.loc 1 314 29 is_stmt 0 view .LVU138
 535 0054 573C     		subs	r4, r4, #87
 536              	.LVL49:
 314:/home/max/chipwhisperer/firmware/mcu/simpleserial/simpleserial.c **** 		else
 537              		.loc 1 314 29 view .LVU139
 538 0056 F5E7     		b	.L34
 539              	.LVL50:
 540              	.L29:
 320:/home/max/chipwhisperer/firmware/mcu/simpleserial/simpleserial.c **** 			data_buf[i] |= (n_hi - 'A' + 10) << 4;
 541              		.loc 1 320 8 is_stmt 1 view .LVU140
 320:/home/max/chipwhisperer/firmware/mcu/simpleserial/simpleserial.c **** 			data_buf[i] |= (n_hi - 'A' + 10) << 4;
 542              		.loc 1 320 10 is_stmt 0 view .LVU141
 543 0058 A3F14104 		sub	r4, r3, #65
 544 005c 052C     		cmp	r4, #5
 545 005e 02D8     		bhi	.L31
 321:/home/max/chipwhisperer/firmware/mcu/simpleserial/simpleserial.c **** 		else if(n_hi >= 'a' && n_hi <= 'f')
 546              		.loc 1 321 4 is_stmt 1 view .LVU142
 321:/home/max/chipwhisperer/firmware/mcu/simpleserial/simpleserial.c **** 		else if(n_hi >= 'a' && n_hi <= 'f')
 547              		.loc 1 321 31 is_stmt 0 view .LVU143
 548 0060 A3F13704 		sub	r4, r3, #55
 549 0064 E2E7     		b	.L36
 550              	.L31:
 322:/home/max/chipwhisperer/firmware/mcu/simpleserial/simpleserial.c **** 			data_buf[i] |= (n_hi - 'a' + 10) << 4;
 551              		.loc 1 322 8 is_stmt 1 view .LVU144
 322:/home/max/chipwhisperer/firmware/mcu/simpleserial/simpleserial.c **** 			data_buf[i] |= (n_hi - 'a' + 10) << 4;
 552              		.loc 1 322 10 is_stmt 0 view .LVU145
 553 0066 A3F16104 		sub	r4, r3, #97
 554 006a 052C     		cmp	r4, #5
 555 006c F0D8     		bhi	.L32
 323:/home/max/chipwhisperer/firmware/mcu/simpleserial/simpleserial.c **** 		else
 556              		.loc 1 323 4 is_stmt 1 view .LVU146
 323:/home/max/chipwhisperer/firmware/mcu/simpleserial/simpleserial.c **** 		else
 557              		.loc 1 323 16 is_stmt 0 view .LVU147
 558 006e 1478     		ldrb	r4, [r2]	@ zero_extendqisi2
 323:/home/max/chipwhisperer/firmware/mcu/simpleserial/simpleserial.c **** 		else
 559              		.loc 1 323 31 view .LVU148
 560 0070 573B     		subs	r3, r3, #87
 561              	.LVL51:
 323:/home/max/chipwhisperer/firmware/mcu/simpleserial/simpleserial.c **** 		else
 562              		.loc 1 323 16 view .LVU149
 563 0072 44EA0313 		orr	r3, r4, r3, lsl #4
 564              	.LVL52:
 323:/home/max/chipwhisperer/firmware/mcu/simpleserial/simpleserial.c **** 		else
 565              		.loc 1 323 16 view .LVU150
 566 0076 DCE7     		b	.L35
 567              	.LBE30:
 568              	.LBE33:
 569              		.cfi_endproc
 570              	.LFE4:
 572              		.section	.text.simpleserial_addcmd_flags,"ax",%progbits
 573              		.align	1
 574              		.global	simpleserial_addcmd_flags
 575              		.syntax unified
 576              		.thumb
 577              		.thumb_func
 578              		.fpu softvfp
 580              	simpleserial_addcmd_flags:
 581              	.LVL53:
 582              	.LFB7:
 348:/home/max/chipwhisperer/firmware/mcu/simpleserial/simpleserial.c **** 	if(num_commands >= MAX_SS_CMDS)
 583              		.loc 1 348 1 is_stmt 1 view -0
 584              		.cfi_startproc
 585              		@ args = 0, pretend = 0, frame = 0
 586              		@ frame_needed = 0, uses_anonymous_args = 0
 349:/home/max/chipwhisperer/firmware/mcu/simpleserial/simpleserial.c **** 		return 1;
 587              		.loc 1 349 2 view .LVU152
 348:/home/max/chipwhisperer/firmware/mcu/simpleserial/simpleserial.c **** 	if(num_commands >= MAX_SS_CMDS)
 588              		.loc 1 348 1 is_stmt 0 view .LVU153
 589 0000 70B5     		push	{r4, r5, r6, lr}
 590              	.LCFI10:
 591              		.cfi_def_cfa_offset 16
 592              		.cfi_offset 4, -16
 593              		.cfi_offset 5, -12
 594              		.cfi_offset 6, -8
 595              		.cfi_offset 14, -4
 349:/home/max/chipwhisperer/firmware/mcu/simpleserial/simpleserial.c **** 		return 1;
 596              		.loc 1 349 18 view .LVU154
 597 0002 094E     		ldr	r6, .L41
 598 0004 3468     		ldr	r4, [r6]
 349:/home/max/chipwhisperer/firmware/mcu/simpleserial/simpleserial.c **** 		return 1;
 599              		.loc 1 349 4 view .LVU155
 600 0006 1F2C     		cmp	r4, #31
 601 0008 0BDC     		bgt	.L40
 352:/home/max/chipwhisperer/firmware/mcu/simpleserial/simpleserial.c **** 		return 1;
 602              		.loc 1 352 2 is_stmt 1 view .LVU156
 352:/home/max/chipwhisperer/firmware/mcu/simpleserial/simpleserial.c **** 		return 1;
 603              		.loc 1 352 4 is_stmt 0 view .LVU157
 604 000a 3F29     		cmp	r1, #63
 605 000c 09D8     		bhi	.L40
 355:/home/max/chipwhisperer/firmware/mcu/simpleserial/simpleserial.c **** 	commands[num_commands].len = len;
 606              		.loc 1 355 2 is_stmt 1 view .LVU158
 355:/home/max/chipwhisperer/firmware/mcu/simpleserial/simpleserial.c **** 	commands[num_commands].len = len;
 607              		.loc 1 355 29 is_stmt 0 view .LVU159
 608 000e 06EB0415 		add	r5, r6, r4, lsl #4
 357:/home/max/chipwhisperer/firmware/mcu/simpleserial/simpleserial.c **** 	commands[num_commands].flags = fl;
 609              		.loc 1 357 29 view .LVU160
 610 0012 C5E90212 		strd	r1, r2, [r5, #8]
 359:/home/max/chipwhisperer/firmware/mcu/simpleserial/simpleserial.c **** 
 611              		.loc 1 359 14 view .LVU161
 612 0016 0134     		adds	r4, r4, #1
 355:/home/max/chipwhisperer/firmware/mcu/simpleserial/simpleserial.c **** 	commands[num_commands].len = len;
 613              		.loc 1 355 29 view .LVU162
 614 0018 2871     		strb	r0, [r5, #4]
 356:/home/max/chipwhisperer/firmware/mcu/simpleserial/simpleserial.c **** 	commands[num_commands].fp  = fp;
 615              		.loc 1 356 2 is_stmt 1 view .LVU163
 358:/home/max/chipwhisperer/firmware/mcu/simpleserial/simpleserial.c **** 	num_commands++;
 616              		.loc 1 358 2 view .LVU164
 358:/home/max/chipwhisperer/firmware/mcu/simpleserial/simpleserial.c **** 	num_commands++;
 617              		.loc 1 358 31 is_stmt 0 view .LVU165
 618 001a 2B74     		strb	r3, [r5, #16]
 359:/home/max/chipwhisperer/firmware/mcu/simpleserial/simpleserial.c **** 
 619              		.loc 1 359 2 is_stmt 1 view .LVU166
 359:/home/max/chipwhisperer/firmware/mcu/simpleserial/simpleserial.c **** 
 620              		.loc 1 359 14 is_stmt 0 view .LVU167
 621 001c 3460     		str	r4, [r6]
 361:/home/max/chipwhisperer/firmware/mcu/simpleserial/simpleserial.c **** }
 622              		.loc 1 361 2 is_stmt 1 view .LVU168
 361:/home/max/chipwhisperer/firmware/mcu/simpleserial/simpleserial.c **** }
 623              		.loc 1 361 9 is_stmt 0 view .LVU169
 624 001e 0020     		movs	r0, #0
 625              	.LVL54:
 626              	.L37:
 362:/home/max/chipwhisperer/firmware/mcu/simpleserial/simpleserial.c **** 
 627              		.loc 1 362 1 view .LVU170
 628 0020 70BD     		pop	{r4, r5, r6, pc}
 629              	.LVL55:
 630              	.L40:
 350:/home/max/chipwhisperer/firmware/mcu/simpleserial/simpleserial.c **** 
 631              		.loc 1 350 10 view .LVU171
 632 0022 0120     		movs	r0, #1
 633              	.LVL56:
 350:/home/max/chipwhisperer/firmware/mcu/simpleserial/simpleserial.c **** 
 634              		.loc 1 350 10 view .LVU172
 635 0024 FCE7     		b	.L37
 636              	.L42:
 637 0026 00BF     		.align	2
 638              	.L41:
 639 0028 00000000 		.word	.LANCHOR1
 640              		.cfi_endproc
 641              	.LFE7:
 643              		.section	.text.simpleserial_addcmd,"ax",%progbits
 644              		.align	1
 645              		.global	simpleserial_addcmd
 646              		.syntax unified
 647              		.thumb
 648              		.thumb_func
 649              		.fpu softvfp
 651              	simpleserial_addcmd:
 652              	.LVL57:
 653              	.LFB6:
 343:/home/max/chipwhisperer/firmware/mcu/simpleserial/simpleserial.c **** 	return simpleserial_addcmd_flags(c, len, fp, CMD_FLAG_NONE);
 654              		.loc 1 343 1 is_stmt 1 view -0
 655              		.cfi_startproc
 656              		@ args = 0, pretend = 0, frame = 0
 657              		@ frame_needed = 0, uses_anonymous_args = 0
 658              		@ link register save eliminated.
 344:/home/max/chipwhisperer/firmware/mcu/simpleserial/simpleserial.c **** }
 659              		.loc 1 344 2 view .LVU174
 344:/home/max/chipwhisperer/firmware/mcu/simpleserial/simpleserial.c **** }
 660              		.loc 1 344 9 is_stmt 0 view .LVU175
 661 0000 0023     		movs	r3, #0
 662 0002 FFF7FEBF 		b	simpleserial_addcmd_flags
 663              	.LVL58:
 344:/home/max/chipwhisperer/firmware/mcu/simpleserial/simpleserial.c **** }
 664              		.loc 1 344 9 view .LVU176
 665              		.cfi_endproc
 666              	.LFE6:
 668              		.section	.text.simpleserial_init,"ax",%progbits
 669              		.align	1
 670              		.global	simpleserial_init
 671              		.syntax unified
 672              		.thumb
 673              		.thumb_func
 674              		.fpu softvfp
 676              	simpleserial_init:
 677              	.LFB5:
 336:/home/max/chipwhisperer/firmware/mcu/simpleserial/simpleserial.c **** 	simpleserial_addcmd('v', 0, check_version);
 678              		.loc 1 336 1 is_stmt 1 view -0
 679              		.cfi_startproc
 680              		@ args = 0, pretend = 0, frame = 0
 681              		@ frame_needed = 0, uses_anonymous_args = 0
 337:/home/max/chipwhisperer/firmware/mcu/simpleserial/simpleserial.c ****     simpleserial_addcmd('w', 0, ss_get_commands);
 682              		.loc 1 337 2 view .LVU178
 336:/home/max/chipwhisperer/firmware/mcu/simpleserial/simpleserial.c **** 	simpleserial_addcmd('v', 0, check_version);
 683              		.loc 1 336 1 is_stmt 0 view .LVU179
 684 0000 08B5     		push	{r3, lr}
 685              	.LCFI11:
 686              		.cfi_def_cfa_offset 8
 687              		.cfi_offset 3, -8
 688              		.cfi_offset 14, -4
 337:/home/max/chipwhisperer/firmware/mcu/simpleserial/simpleserial.c ****     simpleserial_addcmd('w', 0, ss_get_commands);
 689              		.loc 1 337 2 view .LVU180
 690 0002 074A     		ldr	r2, .L45
 691 0004 0021     		movs	r1, #0
 692 0006 7620     		movs	r0, #118
 693 0008 FFF7FEFF 		bl	simpleserial_addcmd
 694              	.LVL59:
 338:/home/max/chipwhisperer/firmware/mcu/simpleserial/simpleserial.c ****     simpleserial_addcmd('y', 0, ss_num_commands);
 695              		.loc 1 338 5 is_stmt 1 view .LVU181
 696 000c 054A     		ldr	r2, .L45+4
 697 000e 7720     		movs	r0, #119
 698 0010 FFF7FEFF 		bl	simpleserial_addcmd
 699              	.LVL60:
 339:/home/max/chipwhisperer/firmware/mcu/simpleserial/simpleserial.c **** }
 700              		.loc 1 339 5 view .LVU182
 340:/home/max/chipwhisperer/firmware/mcu/simpleserial/simpleserial.c **** 
 701              		.loc 1 340 1 is_stmt 0 view .LVU183
 702 0014 BDE80840 		pop	{r3, lr}
 703              	.LCFI12:
 704              		.cfi_restore 14
 705              		.cfi_restore 3
 706              		.cfi_def_cfa_offset 0
 339:/home/max/chipwhisperer/firmware/mcu/simpleserial/simpleserial.c **** }
 707              		.loc 1 339 5 view .LVU184
 708 0018 034A     		ldr	r2, .L45+8
 709 001a 7920     		movs	r0, #121
 710 001c FFF7FEBF 		b	simpleserial_addcmd
 711              	.LVL61:
 712              	.L46:
 713              		.align	2
 714              	.L45:
 715 0020 00000000 		.word	check_version
 716 0024 00000000 		.word	ss_get_commands
 717 0028 00000000 		.word	ss_num_commands
 718              		.cfi_endproc
 719              	.LFE5:
 721              		.section	.text.simpleserial_get,"ax",%progbits
 722              		.align	1
 723              		.global	simpleserial_get
 724              		.syntax unified
 725              		.thumb
 726              		.thumb_func
 727              		.fpu softvfp
 729              	simpleserial_get:
 730              	.LFB8:
 365:/home/max/chipwhisperer/firmware/mcu/simpleserial/simpleserial.c **** 	char ascii_buf[2*MAX_SS_LEN];
 731              		.loc 1 365 1 is_stmt 1 view -0
 732              		.cfi_startproc
 733              		@ args = 0, pretend = 0, frame = 200
 734              		@ frame_needed = 0, uses_anonymous_args = 0
 366:/home/max/chipwhisperer/firmware/mcu/simpleserial/simpleserial.c **** 	uint8_t data_buf[MAX_SS_LEN];
 735              		.loc 1 366 2 view .LVU186
 367:/home/max/chipwhisperer/firmware/mcu/simpleserial/simpleserial.c **** 	char c;
 736              		.loc 1 367 2 view .LVU187
 368:/home/max/chipwhisperer/firmware/mcu/simpleserial/simpleserial.c **** 
 737              		.loc 1 368 2 view .LVU188
 371:/home/max/chipwhisperer/firmware/mcu/simpleserial/simpleserial.c **** 
 738              		.loc 1 371 2 view .LVU189
 365:/home/max/chipwhisperer/firmware/mcu/simpleserial/simpleserial.c **** 	char ascii_buf[2*MAX_SS_LEN];
 739              		.loc 1 365 1 is_stmt 0 view .LVU190
 740 0000 2DE9F041 		push	{r4, r5, r6, r7, r8, lr}
 741              	.LCFI13:
 742              		.cfi_def_cfa_offset 24
 743              		.cfi_offset 4, -24
 744              		.cfi_offset 5, -20
 745              		.cfi_offset 6, -16
 746              		.cfi_offset 7, -12
 747              		.cfi_offset 8, -8
 748              		.cfi_offset 14, -4
 374:/home/max/chipwhisperer/firmware/mcu/simpleserial/simpleserial.c **** 	{
 749              		.loc 1 374 19 view .LVU191
 750 0004 2E4D     		ldr	r5, .L70
 365:/home/max/chipwhisperer/firmware/mcu/simpleserial/simpleserial.c **** 	char ascii_buf[2*MAX_SS_LEN];
 751              		.loc 1 365 1 view .LVU192
 752 0006 B2B0     		sub	sp, sp, #200
 753              	.LCFI14:
 754              		.cfi_def_cfa_offset 224
 371:/home/max/chipwhisperer/firmware/mcu/simpleserial/simpleserial.c **** 
 755              		.loc 1 371 6 view .LVU193
 756 0008 FFF7FEFF 		bl	getch
 757              	.LVL62:
 373:/home/max/chipwhisperer/firmware/mcu/simpleserial/simpleserial.c **** 	for(cmd = 0; cmd < num_commands; cmd++)
 758              		.loc 1 373 2 is_stmt 1 view .LVU194
 374:/home/max/chipwhisperer/firmware/mcu/simpleserial/simpleserial.c **** 	{
 759              		.loc 1 374 2 view .LVU195
 374:/home/max/chipwhisperer/firmware/mcu/simpleserial/simpleserial.c **** 	{
 760              		.loc 1 374 19 is_stmt 0 view .LVU196
 761 000c 2A46     		mov	r2, r5
 374:/home/max/chipwhisperer/firmware/mcu/simpleserial/simpleserial.c **** 	{
 762              		.loc 1 374 10 view .LVU197
 763 000e 0023     		movs	r3, #0
 374:/home/max/chipwhisperer/firmware/mcu/simpleserial/simpleserial.c **** 	{
 764              		.loc 1 374 19 view .LVU198
 765 0010 52F8041B 		ldr	r1, [r2], #4
 766              	.LVL63:
 767              	.L48:
 374:/home/max/chipwhisperer/firmware/mcu/simpleserial/simpleserial.c **** 	{
 768              		.loc 1 374 15 is_stmt 1 discriminator 1 view .LVU199
 374:/home/max/chipwhisperer/firmware/mcu/simpleserial/simpleserial.c **** 	{
 769              		.loc 1 374 2 is_stmt 0 discriminator 1 view .LVU200
 770 0014 9942     		cmp	r1, r3
 771 0016 03DC     		bgt	.L52
 381:/home/max/chipwhisperer/firmware/mcu/simpleserial/simpleserial.c **** 		return;
 772              		.loc 1 381 2 is_stmt 1 view .LVU201
 381:/home/max/chipwhisperer/firmware/mcu/simpleserial/simpleserial.c **** 		return;
 773              		.loc 1 381 4 is_stmt 0 view .LVU202
 774 0018 06D1     		bne	.L54
 775              	.LVL64:
 776              	.L47:
 426:/home/max/chipwhisperer/firmware/mcu/simpleserial/simpleserial.c **** 
 777              		.loc 1 426 1 view .LVU203
 778 001a 32B0     		add	sp, sp, #200
 779              	.LCFI15:
 780              		.cfi_remember_state
 781              		.cfi_def_cfa_offset 24
 782              		@ sp needed
 783 001c BDE8F081 		pop	{r4, r5, r6, r7, r8, pc}
 784              	.LVL65:
 785              	.L52:
 786              	.LCFI16:
 787              		.cfi_restore_state
 376:/home/max/chipwhisperer/firmware/mcu/simpleserial/simpleserial.c **** 			break;
 788              		.loc 1 376 3 is_stmt 1 view .LVU204
 376:/home/max/chipwhisperer/firmware/mcu/simpleserial/simpleserial.c **** 			break;
 789              		.loc 1 376 19 is_stmt 0 view .LVU205
 790 0020 1C01     		lsls	r4, r3, #4
 376:/home/max/chipwhisperer/firmware/mcu/simpleserial/simpleserial.c **** 			break;
 791              		.loc 1 376 5 view .LVU206
 792 0022 A45C     		ldrb	r4, [r4, r2]	@ zero_extendqisi2
 793 0024 8442     		cmp	r4, r0
 794 0026 3ED1     		bne	.L49
 795              	.L54:
 385:/home/max/chipwhisperer/firmware/mcu/simpleserial/simpleserial.c **** 	{
 796              		.loc 1 385 2 is_stmt 1 view .LVU207
 385:/home/max/chipwhisperer/firmware/mcu/simpleserial/simpleserial.c **** 	{
 797              		.loc 1 385 20 is_stmt 0 view .LVU208
 798 0028 05EB0314 		add	r4, r5, r3, lsl #4
 799 002c 1E01     		lsls	r6, r3, #4
 385:/home/max/chipwhisperer/firmware/mcu/simpleserial/simpleserial.c **** 	{
 800              		.loc 1 385 5 view .LVU209
 801 002e 237C     		ldrb	r3, [r4, #16]	@ zero_extendqisi2
 802              	.LVL66:
 385:/home/max/chipwhisperer/firmware/mcu/simpleserial/simpleserial.c **** 	{
 803              		.loc 1 385 5 view .LVU210
 804 0030 DB07     		lsls	r3, r3, #31
 805 0032 14D5     		bpl	.L51
 806              	.LBB34:
 387:/home/max/chipwhisperer/firmware/mcu/simpleserial/simpleserial.c **** 		char buff[2];
 807              		.loc 1 387 3 is_stmt 1 view .LVU211
 387:/home/max/chipwhisperer/firmware/mcu/simpleserial/simpleserial.c **** 		char buff[2];
 808              		.loc 1 387 11 is_stmt 0 view .LVU212
 809 0034 0023     		movs	r3, #0
 810 0036 8DF80830 		strb	r3, [sp, #8]
 388:/home/max/chipwhisperer/firmware/mcu/simpleserial/simpleserial.c **** 		buff[0] = getch();
 811              		.loc 1 388 3 is_stmt 1 view .LVU213
 389:/home/max/chipwhisperer/firmware/mcu/simpleserial/simpleserial.c **** 		buff[1] = getch();
 812              		.loc 1 389 3 view .LVU214
 389:/home/max/chipwhisperer/firmware/mcu/simpleserial/simpleserial.c **** 		buff[1] = getch();
 813              		.loc 1 389 13 is_stmt 0 view .LVU215
 814 003a FFF7FEFF 		bl	getch
 815              	.LVL67:
 389:/home/max/chipwhisperer/firmware/mcu/simpleserial/simpleserial.c **** 		buff[1] = getch();
 816              		.loc 1 389 11 view .LVU216
 817 003e 8DF84800 		strb	r0, [sp, #72]
 390:/home/max/chipwhisperer/firmware/mcu/simpleserial/simpleserial.c **** 		if (hex_decode(1, buff, &l))
 818              		.loc 1 390 3 is_stmt 1 view .LVU217
 390:/home/max/chipwhisperer/firmware/mcu/simpleserial/simpleserial.c **** 		if (hex_decode(1, buff, &l))
 819              		.loc 1 390 13 is_stmt 0 view .LVU218
 820 0042 FFF7FEFF 		bl	getch
 821              	.LVL68:
 391:/home/max/chipwhisperer/firmware/mcu/simpleserial/simpleserial.c **** 			return;
 822              		.loc 1 391 7 view .LVU219
 823 0046 02AA     		add	r2, sp, #8
 390:/home/max/chipwhisperer/firmware/mcu/simpleserial/simpleserial.c **** 		if (hex_decode(1, buff, &l))
 824              		.loc 1 390 11 view .LVU220
 825 0048 8DF84900 		strb	r0, [sp, #73]
 391:/home/max/chipwhisperer/firmware/mcu/simpleserial/simpleserial.c **** 			return;
 826              		.loc 1 391 3 is_stmt 1 view .LVU221
 391:/home/max/chipwhisperer/firmware/mcu/simpleserial/simpleserial.c **** 			return;
 827              		.loc 1 391 7 is_stmt 0 view .LVU222
 828 004c 12A9     		add	r1, sp, #72
 829 004e 0120     		movs	r0, #1
 830 0050 FFF7FEFF 		bl	hex_decode
 831              	.LVL69:
 391:/home/max/chipwhisperer/firmware/mcu/simpleserial/simpleserial.c **** 			return;
 832              		.loc 1 391 6 view .LVU223
 833 0054 0028     		cmp	r0, #0
 834 0056 E0D1     		bne	.L47
 393:/home/max/chipwhisperer/firmware/mcu/simpleserial/simpleserial.c **** 	}
 835              		.loc 1 393 3 is_stmt 1 view .LVU224
 393:/home/max/chipwhisperer/firmware/mcu/simpleserial/simpleserial.c **** 	}
 836              		.loc 1 393 21 is_stmt 0 view .LVU225
 837 0058 9DF80830 		ldrb	r3, [sp, #8]	@ zero_extendqisi2
 838 005c A360     		str	r3, [r4, #8]
 839              	.L51:
 840 005e 12AF     		add	r7, sp, #72
 841              	.LBE34:
 374:/home/max/chipwhisperer/firmware/mcu/simpleserial/simpleserial.c **** 	{
 842              		.loc 1 374 10 discriminator 1 view .LVU226
 843 0060 0024     		movs	r4, #0
 844              	.LBB35:
 397:/home/max/chipwhisperer/firmware/mcu/simpleserial/simpleserial.c **** 	{
 845              		.loc 1 397 36 discriminator 1 view .LVU227
 846 0062 05EB0608 		add	r8, r5, r6
 847              	.L57:
 848              	.LVL70:
 397:/home/max/chipwhisperer/firmware/mcu/simpleserial/simpleserial.c **** 	{
 849              		.loc 1 397 17 is_stmt 1 discriminator 1 view .LVU228
 397:/home/max/chipwhisperer/firmware/mcu/simpleserial/simpleserial.c **** 	{
 850              		.loc 1 397 22 is_stmt 0 discriminator 1 view .LVU229
 851 0066 D8F80830 		ldr	r3, [r8, #8]
 397:/home/max/chipwhisperer/firmware/mcu/simpleserial/simpleserial.c **** 	{
 852              		.loc 1 397 2 discriminator 1 view .LVU230
 853 006a B4EB430F 		cmp	r4, r3, lsl #1
 854 006e 1CD3     		bcc	.L58
 855              	.LBE35:
 409:/home/max/chipwhisperer/firmware/mcu/simpleserial/simpleserial.c **** 	if(c != '\n' && c != '\r')
 856              		.loc 1 409 2 is_stmt 1 view .LVU231
 409:/home/max/chipwhisperer/firmware/mcu/simpleserial/simpleserial.c **** 	if(c != '\n' && c != '\r')
 857              		.loc 1 409 6 is_stmt 0 view .LVU232
 858 0070 FFF7FEFF 		bl	getch
 859              	.LVL71:
 410:/home/max/chipwhisperer/firmware/mcu/simpleserial/simpleserial.c **** 		return;
 860              		.loc 1 410 2 is_stmt 1 view .LVU233
 410:/home/max/chipwhisperer/firmware/mcu/simpleserial/simpleserial.c **** 		return;
 861              		.loc 1 410 4 is_stmt 0 view .LVU234
 862 0074 0A28     		cmp	r0, #10
 863 0076 01D0     		beq	.L59
 410:/home/max/chipwhisperer/firmware/mcu/simpleserial/simpleserial.c **** 		return;
 864              		.loc 1 410 15 discriminator 1 view .LVU235
 865 0078 0D28     		cmp	r0, #13
 866 007a CED1     		bne	.L47
 867              	.L59:
 415:/home/max/chipwhisperer/firmware/mcu/simpleserial/simpleserial.c **** 		return;
 868              		.loc 1 415 2 is_stmt 1 view .LVU236
 415:/home/max/chipwhisperer/firmware/mcu/simpleserial/simpleserial.c **** 		return;
 869              		.loc 1 415 29 is_stmt 0 view .LVU237
 870 007c 3544     		add	r5, r5, r6
 415:/home/max/chipwhisperer/firmware/mcu/simpleserial/simpleserial.c **** 		return;
 871              		.loc 1 415 5 view .LVU238
 872 007e 02AA     		add	r2, sp, #8
 415:/home/max/chipwhisperer/firmware/mcu/simpleserial/simpleserial.c **** 		return;
 873              		.loc 1 415 29 view .LVU239
 874 0080 AC68     		ldr	r4, [r5, #8]
 875              	.LVL72:
 415:/home/max/chipwhisperer/firmware/mcu/simpleserial/simpleserial.c **** 		return;
 876              		.loc 1 415 5 view .LVU240
 877 0082 12A9     		add	r1, sp, #72
 878 0084 2046     		mov	r0, r4
 879              	.LVL73:
 415:/home/max/chipwhisperer/firmware/mcu/simpleserial/simpleserial.c **** 		return;
 880              		.loc 1 415 5 view .LVU241
 881 0086 FFF7FEFF 		bl	hex_decode
 882              	.LVL74:
 415:/home/max/chipwhisperer/firmware/mcu/simpleserial/simpleserial.c **** 		return;
 883              		.loc 1 415 4 view .LVU242
 884 008a 0028     		cmp	r0, #0
 885 008c C5D1     		bne	.L47
 419:/home/max/chipwhisperer/firmware/mcu/simpleserial/simpleserial.c **** 	ret[0] = commands[cmd].fp(data_buf, commands[cmd].len);
 886              		.loc 1 419 2 is_stmt 1 view .LVU243
 420:/home/max/chipwhisperer/firmware/mcu/simpleserial/simpleserial.c **** 
 887              		.loc 1 420 2 view .LVU244
 420:/home/max/chipwhisperer/firmware/mcu/simpleserial/simpleserial.c **** 
 888              		.loc 1 420 11 is_stmt 0 view .LVU245
 889 008e E1B2     		uxtb	r1, r4
 890 0090 EB68     		ldr	r3, [r5, #12]
 891 0092 02A8     		add	r0, sp, #8
 892 0094 9847     		blx	r3
 893              	.LVL75:
 894              	.LBB36:
 895              	.LBB37:
 896 0096 01AA     		add	r2, sp, #4
 897              	.LBE37:
 898              	.LBE36:
 420:/home/max/chipwhisperer/firmware/mcu/simpleserial/simpleserial.c **** 
 899              		.loc 1 420 9 view .LVU246
 900 0098 8DF80400 		strb	r0, [sp, #4]
 424:/home/max/chipwhisperer/firmware/mcu/simpleserial/simpleserial.c **** #endif
 901              		.loc 1 424 2 is_stmt 1 view .LVU247
 902              	.LVL76:
 903              	.LBB39:
 904              	.LBI36:
 428:/home/max/chipwhisperer/firmware/mcu/simpleserial/simpleserial.c **** {
 905              		.loc 1 428 6 view .LVU248
 906              	.LBB38:
 431:/home/max/chipwhisperer/firmware/mcu/simpleserial/simpleserial.c **** 	putch(c);
 907              		.loc 1 431 5 view .LVU249
 908 009c 0121     		movs	r1, #1
 909 009e 7A20     		movs	r0, #122
 910 00a0 FFF7FEFF 		bl	simpleserial_put.part.0
 911              	.LVL77:
 431:/home/max/chipwhisperer/firmware/mcu/simpleserial/simpleserial.c **** 	putch(c);
 912              		.loc 1 431 5 is_stmt 0 view .LVU250
 913              	.LBE38:
 914              	.LBE39:
 915 00a4 B9E7     		b	.L47
 916              	.LVL78:
 917              	.L49:
 374:/home/max/chipwhisperer/firmware/mcu/simpleserial/simpleserial.c **** 	{
 918              		.loc 1 374 35 is_stmt 1 discriminator 2 view .LVU251
 374:/home/max/chipwhisperer/firmware/mcu/simpleserial/simpleserial.c **** 	{
 919              		.loc 1 374 38 is_stmt 0 discriminator 2 view .LVU252
 920 00a6 0133     		adds	r3, r3, #1
 921              	.LVL79:
 374:/home/max/chipwhisperer/firmware/mcu/simpleserial/simpleserial.c **** 	{
 922              		.loc 1 374 38 discriminator 2 view .LVU253
 923 00a8 B4E7     		b	.L48
 924              	.LVL80:
 925              	.L58:
 926              	.LBB40:
 399:/home/max/chipwhisperer/firmware/mcu/simpleserial/simpleserial.c **** 
 927              		.loc 1 399 3 is_stmt 1 view .LVU254
 399:/home/max/chipwhisperer/firmware/mcu/simpleserial/simpleserial.c **** 
 928              		.loc 1 399 7 is_stmt 0 view .LVU255
 929 00aa FFF7FEFF 		bl	getch
 930              	.LVL81:
 402:/home/max/chipwhisperer/firmware/mcu/simpleserial/simpleserial.c **** 			return;
 931              		.loc 1 402 3 is_stmt 1 view .LVU256
 402:/home/max/chipwhisperer/firmware/mcu/simpleserial/simpleserial.c **** 			return;
 932              		.loc 1 402 5 is_stmt 0 view .LVU257
 933 00ae 0A28     		cmp	r0, #10
 934 00b0 B3D0     		beq	.L47
 402:/home/max/chipwhisperer/firmware/mcu/simpleserial/simpleserial.c **** 			return;
 935              		.loc 1 402 16 discriminator 1 view .LVU258
 936 00b2 0D28     		cmp	r0, #13
 937 00b4 B1D0     		beq	.L47
 405:/home/max/chipwhisperer/firmware/mcu/simpleserial/simpleserial.c **** 	}
 938              		.loc 1 405 3 is_stmt 1 discriminator 2 view .LVU259
 405:/home/max/chipwhisperer/firmware/mcu/simpleserial/simpleserial.c **** 	}
 939              		.loc 1 405 16 is_stmt 0 discriminator 2 view .LVU260
 940 00b6 07F8010B 		strb	r0, [r7], #1
 397:/home/max/chipwhisperer/firmware/mcu/simpleserial/simpleserial.c **** 	{
 941              		.loc 1 397 42 is_stmt 1 discriminator 2 view .LVU261
 397:/home/max/chipwhisperer/firmware/mcu/simpleserial/simpleserial.c **** 	{
 942              		.loc 1 397 43 is_stmt 0 discriminator 2 view .LVU262
 943 00ba 0134     		adds	r4, r4, #1
 944              	.LVL82:
 397:/home/max/chipwhisperer/firmware/mcu/simpleserial/simpleserial.c **** 	{
 945              		.loc 1 397 43 discriminator 2 view .LVU263
 946 00bc D3E7     		b	.L57
 947              	.L71:
 948 00be 00BF     		.align	2
 949              	.L70:
 950 00c0 00000000 		.word	.LANCHOR1
 951              	.LBE40:
 952              		.cfi_endproc
 953              	.LFE8:
 955              		.section	.text.simpleserial_put,"ax",%progbits
 956              		.align	1
 957              		.global	simpleserial_put
 958              		.syntax unified
 959              		.thumb
 960              		.thumb_func
 961              		.fpu softvfp
 963              	simpleserial_put:
 964              	.LVL83:
 965              	.LFB9:
 429:/home/max/chipwhisperer/firmware/mcu/simpleserial/simpleserial.c **** 	// Write first character
 966              		.loc 1 429 1 is_stmt 1 view -0
 967              		.cfi_startproc
 968              		@ args = 0, pretend = 0, frame = 0
 969              		@ frame_needed = 0, uses_anonymous_args = 0
 970              		@ link register save eliminated.
 431:/home/max/chipwhisperer/firmware/mcu/simpleserial/simpleserial.c **** 	putch(c);
 971              		.loc 1 431 5 view .LVU265
 431:/home/max/chipwhisperer/firmware/mcu/simpleserial/simpleserial.c **** 	putch(c);
 972              		.loc 1 431 8 is_stmt 0 view .LVU266
 973 0000 0AB1     		cbz	r2, .L72
 974 0002 FFF7FEBF 		b	simpleserial_put.part.0
 975              	.LVL84:
 976              	.L72:
 977              		.loc 1 443 1 view .LVU267
 978 0006 7047     		bx	lr
 979              		.cfi_endproc
 980              	.LFE9:
 982              		.section	.rodata
 983              		.set	.LANCHOR0,. + 0
 986              	hex_lookup:
 987 0000 30313233 		.ascii	"0123456789ABCDEF"
 987      34353637 
 987      38394142 
 987      43444546 
 988              		.bss
 989              		.align	2
 990              		.set	.LANCHOR1,. + 0
 993              	num_commands:
 994 0000 00000000 		.space	4
 997              	commands:
 998 0004 00000000 		.space	512
 998      00000000 
 998      00000000 
 998      00000000 
 998      00000000 
 999              		.text
 1000              	.Letext0:
 1001              		.file 2 "/usr/lib/gcc/arm-none-eabi/10.3.1/include/stdint.h"
 1002              		.file 3 "/home/max/chipwhisperer/firmware/mcu/hal/stm32f3/stm32f3_hal.h"